(dp0
S'isShellCmd'
p1
I00
sS'cmd'
p2
(lp3
S'/home/azureuser_michael/Utils/miniforge3/envs/manta_env/libexec/EstimateSVLoci'
p4
aS'--output-file'
p5
aS'/home/azureuser_michael/Data/Variant_Calling/SV_Results/workspace/svLocusGraph.bin.tmpdir/svLocusGraph.chromId_384_chrUn_KI270588v1_0000_to_chromId_425_chrUn_KI270521v1_0000.bin'
p6
aS'--align-stats'
p7
aS'/home/azureuser_michael/Data/Variant_Calling/SV_Results/workspace/alignmentStats.xml'
p8
aS'--region'
p9
aS'chrUn_KI270588v1:1-6158'
p10
ag9
aS'chrUn_KI270593v1:1-3041'
p11
ag9
aS'chrUn_KI270591v1:1-5796'
p12
ag9
aS'chrUn_KI270330v1:1-1652'
p13
ag9
aS'chrUn_KI270329v1:1-1040'
p14
ag9
aS'chrUn_KI270334v1:1-1368'
p15
ag9
aS'chrUn_KI270333v1:1-2699'
p16
ag9
aS'chrUn_KI270335v1:1-1048'
p17
ag9
aS'chrUn_KI270338v1:1-1428'
p18
ag9
aS'chrUn_KI270340v1:1-1428'
p19
ag9
aS'chrUn_KI270336v1:1-1026'
p20
ag9
aS'chrUn_KI270337v1:1-1121'
p21
ag9
aS'chrUn_KI270363v1:1-1803'
p22
ag9
aS'chrUn_KI270364v1:1-2855'
p23
ag9
aS'chrUn_KI270362v1:1-3530'
p24
ag9
aS'chrUn_KI270366v1:1-8320'
p25
ag9
aS'chrUn_KI270378v1:1-1048'
p26
ag9
aS'chrUn_KI270379v1:1-1045'
p27
ag9
aS'chrUn_KI270389v1:1-1298'
p28
ag9
aS'chrUn_KI270390v1:1-2387'
p29
ag9
aS'chrUn_KI270387v1:1-1537'
p30
ag9
aS'chrUn_KI270395v1:1-1143'
p31
ag9
aS'chrUn_KI270396v1:1-1880'
p32
ag9
aS'chrUn_KI270388v1:1-1216'
p33
ag9
aS'chrUn_KI270394v1:1-970'
p34
ag9
aS'chrUn_KI270386v1:1-1788'
p35
ag9
aS'chrUn_KI270391v1:1-1484'
p36
ag9
aS'chrUn_KI270383v1:1-1750'
p37
ag9
aS'chrUn_KI270393v1:1-1308'
p38
ag9
aS'chrUn_KI270384v1:1-1658'
p39
ag9
aS'chrUn_KI270392v1:1-971'
p40
ag9
aS'chrUn_KI270381v1:1-1930'
p41
ag9
aS'chrUn_KI270385v1:1-990'
p42
ag9
aS'chrUn_KI270382v1:1-4215'
p43
ag9
aS'chrUn_KI270376v1:1-1136'
p44
ag9
aS'chrUn_KI270374v1:1-2656'
p45
ag9
aS'chrUn_KI270372v1:1-1650'
p46
ag9
aS'chrUn_KI270373v1:1-1451'
p47
ag9
aS'chrUn_KI270375v1:1-2378'
p48
ag9
aS'chrUn_KI270371v1:1-2805'
p49
ag9
aS'chrUn_KI270448v1:1-7992'
p50
ag9
aS'chrUn_KI270521v1:1-7642'
p51
aS'--min-candidate-sv-size'
p52
aS'8'
p53
aS'--min-edge-observations'
p54
aS'3'
p55
aS'--ref'
p56
aS'/home/azureuser_michael/Data/Read_Alignment/hg_38.fa'
p57
aS'--align-file'
p58
aS'/home/azureuser_michael/Data/Post_Processing/CA.bam'
p59
aS'--tumor-align-file'
p60
aS'/home/azureuser_michael/Data/Post_Processing/TA.bam'
p61
aS'--chrom-depth'
p62
aS'/home/azureuser_michael/Data/Variant_Calling/SV_Results/workspace/chromDepth.txt'
p63
asS'errFile'
p64
S'/home/azureuser_michael/Data/Variant_Calling/SV_Results/workspace/pyflow.data/logs/pyflow_tasks_stderr_log.txt'
p65
sS'outFile'
p66
S'/home/azureuser_michael/Data/Variant_Calling/SV_Results/workspace/pyflow.data/logs/pyflow_tasks_stdout_log.txt'
p67
sS'env'
p68
NsS'nCores'
p69
I1
sS'cwd'
p70
S''
p71
s.