(dp0
S'isShellCmd'
p1
I00
sS'cmd'
p2
(lp3
S'/home/azureuser_michael/Utils/miniforge3/envs/manta_env/libexec/GetChromDepth'
p4
aS'--ref'
p5
aS'/home/azureuser_michael/Data/Read_Alignment/hg_38.fa'
p6
aS'--align-file'
p7
aS'/home/azureuser_michael/Data/Post_Processing/CA.bam'
p8
aS'--output'
p9
aS'/home/azureuser_michael/Data/Variant_Calling/SV_Results/workspace/chromDepth.txt.tmpdir/chromDepth.txt.000.txt.tmpdir/chromDepth.txt.000.txt_194_chr16_KI270854v1_alt_to_195_chr16_KI270856v1_alt'
p10
aS'--chrom'
p11
aS'chr16_KI270854v1_alt'
p12
ag11
aS'chr16_KI270856v1_alt'
p13
asS'errFile'
p14
S'/home/azureuser_michael/Data/Variant_Calling/SV_Results/workspace/pyflow.data/logs/pyflow_tasks_stderr_log.txt'
p15
sS'outFile'
p16
S'/home/azureuser_michael/Data/Variant_Calling/SV_Results/workspace/pyflow.data/logs/pyflow_tasks_stdout_log.txt'
p17
sS'env'
p18
NsS'nCores'
p19
I1
sS'cwd'
p20
S''
p21
s.