(dp0
S'isShellCmd'
p1
I00
sS'cmd'
p2
(lp3
S'/home/azureuser_michael/Utils/miniforge3/envs/manta_env/libexec/EstimateSVLoci'
p4
aS'--output-file'
p5
aS'/home/azureuser_michael/Data/Variant_Calling/SV_Results/workspace/svLocusGraph.bin.tmpdir/svLocusGraph.chromId_354_chrUn_KI270438v1_0000_to_chromId_361_chrUn_KI270512v1_0000.bin'
p6
aS'--align-stats'
p7
aS'/home/azureuser_michael/Data/Variant_Calling/SV_Results/workspace/alignmentStats.xml'
p8
aS'--region'
p9
aS'chrUn_KI270438v1:1-112505'
p10
ag9
aS'chrUn_KI270468v1:1-4055'
p11
ag9
aS'chrUn_KI270510v1:1-2415'
p12
ag9
aS'chrUn_KI270509v1:1-2318'
p13
ag9
aS'chrUn_KI270518v1:1-2186'
p14
ag9
aS'chrUn_KI270508v1:1-1951'
p15
ag9
aS'chrUn_KI270516v1:1-1300'
p16
ag9
aS'chrUn_KI270512v1:1-22689'
p17
aS'--min-candidate-sv-size'
p18
aS'8'
p19
aS'--min-edge-observations'
p20
aS'3'
p21
aS'--ref'
p22
aS'/home/azureuser_michael/Data/Read_Alignment/hg_38.fa'
p23
aS'--align-file'
p24
aS'/home/azureuser_michael/Data/Post_Processing/CA.bam'
p25
aS'--tumor-align-file'
p26
aS'/home/azureuser_michael/Data/Post_Processing/TA.bam'
p27
aS'--chrom-depth'
p28
aS'/home/azureuser_michael/Data/Variant_Calling/SV_Results/workspace/chromDepth.txt'
p29
asS'errFile'
p30
S'/home/azureuser_michael/Data/Variant_Calling/SV_Results/workspace/pyflow.data/logs/pyflow_tasks_stderr_log.txt'
p31
sS'outFile'
p32
S'/home/azureuser_michael/Data/Variant_Calling/SV_Results/workspace/pyflow.data/logs/pyflow_tasks_stdout_log.txt'
p33
sS'env'
p34
NsS'nCores'
p35
I1
sS'cwd'
p36
S''
p37
s.