(dp0
S'isShellCmd'
p1
I00
sS'cmd'
p2
(lp3
S'/home/azureuser_michael/Utils/miniforge3/envs/manta_env/libexec/EstimateSVLoci'
p4
aS'--output-file'
p5
aS'/home/azureuser_michael/Data/Variant_Calling/SV_Results/workspace/svLocusGraph.bin.tmpdir/svLocusGraph.chromId_324_chrM_0000_to_chromId_348_chrUn_KI270429v1_0000.bin'
p6
aS'--align-stats'
p7
aS'/home/azureuser_michael/Data/Variant_Calling/SV_Results/workspace/alignmentStats.xml'
p8
aS'--region'
p9
aS'chrM:1-16569'
p10
ag9
aS'chrUn_KI270302v1:1-2274'
p11
ag9
aS'chrUn_KI270304v1:1-2165'
p12
ag9
aS'chrUn_KI270303v1:1-1942'
p13
ag9
aS'chrUn_KI270305v1:1-1472'
p14
ag9
aS'chrUn_KI270322v1:1-21476'
p15
ag9
aS'chrUn_KI270320v1:1-4416'
p16
ag9
aS'chrUn_KI270310v1:1-1201'
p17
ag9
aS'chrUn_KI270316v1:1-1444'
p18
ag9
aS'chrUn_KI270315v1:1-2276'
p19
ag9
aS'chrUn_KI270312v1:1-998'
p20
ag9
aS'chrUn_KI270311v1:1-12399'
p21
ag9
aS'chrUn_KI270317v1:1-37690'
p22
ag9
aS'chrUn_KI270412v1:1-1179'
p23
ag9
aS'chrUn_KI270411v1:1-2646'
p24
ag9
aS'chrUn_KI270414v1:1-2489'
p25
ag9
aS'chrUn_KI270419v1:1-1029'
p26
ag9
aS'chrUn_KI270418v1:1-2145'
p27
ag9
aS'chrUn_KI270420v1:1-2321'
p28
ag9
aS'chrUn_KI270424v1:1-2140'
p29
ag9
aS'chrUn_KI270417v1:1-2043'
p30
ag9
aS'chrUn_KI270422v1:1-1445'
p31
ag9
aS'chrUn_KI270423v1:1-981'
p32
ag9
aS'chrUn_KI270425v1:1-1884'
p33
ag9
aS'chrUn_KI270429v1:1-1361'
p34
aS'--min-candidate-sv-size'
p35
aS'8'
p36
aS'--min-edge-observations'
p37
aS'3'
p38
aS'--ref'
p39
aS'/home/azureuser_michael/Data/Read_Alignment/hg_38.fa'
p40
aS'--align-file'
p41
aS'/home/azureuser_michael/Data/Post_Processing/CA.bam'
p42
aS'--tumor-align-file'
p43
aS'/home/azureuser_michael/Data/Post_Processing/TA.bam'
p44
aS'--chrom-depth'
p45
aS'/home/azureuser_michael/Data/Variant_Calling/SV_Results/workspace/chromDepth.txt'
p46
asS'errFile'
p47
S'/home/azureuser_michael/Data/Variant_Calling/SV_Results/workspace/pyflow.data/logs/pyflow_tasks_stderr_log.txt'
p48
sS'outFile'
p49
S'/home/azureuser_michael/Data/Variant_Calling/SV_Results/workspace/pyflow.data/logs/pyflow_tasks_stdout_log.txt'
p50
sS'env'
p51
NsS'nCores'
p52
I1
sS'cwd'
p53
S''
p54
s.