(dp0
S'isShellCmd'
p1
I00
sS'cmd'
p2
(lp3
S'/home/azureuser_michael/Utils/miniforge3/envs/manta_env/libexec/EstimateSVLoci'
p4
aS'--output-file'
p5
aS'/home/azureuser_michael/Data/Variant_Calling/SV_Results/workspace/svLocusGraph.bin.tmpdir/svLocusGraph.chromId_467_chr1_KZ208906v1_fix_0000.bin'
p6
aS'--align-stats'
p7
aS'/home/azureuser_michael/Data/Variant_Calling/SV_Results/workspace/alignmentStats.xml'
p8
aS'--region'
p9
aS'chr1_KZ208906v1_fix:1-330031'
p10
aS'--min-candidate-sv-size'
p11
aS'8'
p12
aS'--min-edge-observations'
p13
aS'3'
p14
aS'--ref'
p15
aS'/home/azureuser_michael/Data/Read_Alignment/hg_38.fa'
p16
aS'--align-file'
p17
aS'/home/azureuser_michael/Data/Post_Processing/CA.bam'
p18
aS'--tumor-align-file'
p19
aS'/home/azureuser_michael/Data/Post_Processing/TA.bam'
p20
aS'--chrom-depth'
p21
aS'/home/azureuser_michael/Data/Variant_Calling/SV_Results/workspace/chromDepth.txt'
p22
asS'errFile'
p23
S'/home/azureuser_michael/Data/Variant_Calling/SV_Results/workspace/pyflow.data/logs/pyflow_tasks_stderr_log.txt'
p24
sS'outFile'
p25
S'/home/azureuser_michael/Data/Variant_Calling/SV_Results/workspace/pyflow.data/logs/pyflow_tasks_stdout_log.txt'
p26
sS'env'
p27
NsS'nCores'
p28
I1
sS'cwd'
p29
S''
p30
s.