(dp0
S'isShellCmd'
p1
I00
sS'cmd'
p2
(lp3
S'/home/azureuser_michael/Utils/miniforge3/envs/manta_env/libexec/GetChromDepth'
p4
aS'--ref'
p5
aS'/home/azureuser_michael/Data/Read_Alignment/hg_38.fa'
p6
aS'--align-file'
p7
aS'/home/azureuser_michael/Data/Post_Processing/CA.bam'
p8
aS'--output'
p9
aS'/home/azureuser_michael/Data/Variant_Calling/SV_Results/workspace/chromDepth.txt.tmpdir/chromDepth.txt.000.txt.tmpdir/chromDepth.txt.000.txt_028_chr1_KI270709v1_random_to_030_chr1_KI270711v1_random'
p10
aS'--chrom'
p11
aS'chr1_KI270709v1_random'
p12
ag11
aS'chr1_KI270710v1_random'
p13
ag11
aS'chr1_KI270711v1_random'
p14
asS'errFile'
p15
S'/home/azureuser_michael/Data/Variant_Calling/SV_Results/workspace/pyflow.data/logs/pyflow_tasks_stderr_log.txt'
p16
sS'outFile'
p17
S'/home/azureuser_michael/Data/Variant_Calling/SV_Results/workspace/pyflow.data/logs/pyflow_tasks_stdout_log.txt'
p18
sS'env'
p19
NsS'nCores'
p20
I1
sS'cwd'
p21
S''
p22
s.