(dp0
S'isShellCmd'
p1
I00
sS'cmd'
p2
(lp3
S'/home/azureuser_michael/Utils/miniforge3/envs/manta_env/libexec/GetChromDepth'
p4
aS'--ref'
p5
aS'/home/azureuser_michael/Data/Read_Alignment/hg_38.fa'
p6
aS'--align-file'
p7
aS'/home/azureuser_michael/Data/Post_Processing/CA.bam'
p8
aS'--output'
p9
aS'/home/azureuser_michael/Data/Variant_Calling/SV_Results/workspace/chromDepth.txt.tmpdir/chromDepth.txt.000.txt.tmpdir/chromDepth.txt.000.txt_372_chrUn_KI270538v1_to_383_chrUn_KI270582v1'
p10
aS'--chrom'
p11
aS'chrUn_KI270538v1'
p12
ag11
aS'chrUn_KI270544v1'
p13
ag11
aS'chrUn_KI270548v1'
p14
ag11
aS'chrUn_KI270583v1'
p15
ag11
aS'chrUn_KI270587v1'
p16
ag11
aS'chrUn_KI270580v1'
p17
ag11
aS'chrUn_KI270581v1'
p18
ag11
aS'chrUn_KI270579v1'
p19
ag11
aS'chrUn_KI270589v1'
p20
ag11
aS'chrUn_KI270590v1'
p21
ag11
aS'chrUn_KI270584v1'
p22
ag11
aS'chrUn_KI270582v1'
p23
asS'errFile'
p24
S'/home/azureuser_michael/Data/Variant_Calling/SV_Results/workspace/pyflow.data/logs/pyflow_tasks_stderr_log.txt'
p25
sS'outFile'
p26
S'/home/azureuser_michael/Data/Variant_Calling/SV_Results/workspace/pyflow.data/logs/pyflow_tasks_stdout_log.txt'
p27
sS'env'
p28
NsS'nCores'
p29
I1
sS'cwd'
p30
S''
p31
s.