(dp0
S'isShellCmd'
p1
I00
sS'cmd'
p2
(lp3
S'/home/azureuser_michael/Utils/miniforge3/envs/manta_env/libexec/GetChromDepth'
p4
aS'--ref'
p5
aS'/home/azureuser_michael/Data/Read_Alignment/hg_38.fa'
p6
aS'--align-file'
p7
aS'/home/azureuser_michael/Data/Post_Processing/CA.bam'
p8
aS'--output'
p9
aS'/home/azureuser_michael/Data/Variant_Calling/SV_Results/workspace/chromDepth.txt.tmpdir/chromDepth.txt.000.txt.tmpdir/chromDepth.txt.000.txt_362_chrUn_KI270519v1_to_371_chrUn_KI270539v1'
p10
aS'--chrom'
p11
aS'chrUn_KI270519v1'
p12
ag11
aS'chrUn_KI270522v1'
p13
ag11
aS'chrUn_KI270511v1'
p14
ag11
aS'chrUn_KI270515v1'
p15
ag11
aS'chrUn_KI270507v1'
p16
ag11
aS'chrUn_KI270517v1'
p17
ag11
aS'chrUn_KI270529v1'
p18
ag11
aS'chrUn_KI270528v1'
p19
ag11
aS'chrUn_KI270530v1'
p20
ag11
aS'chrUn_KI270539v1'
p21
asS'errFile'
p22
S'/home/azureuser_michael/Data/Variant_Calling/SV_Results/workspace/pyflow.data/logs/pyflow_tasks_stderr_log.txt'
p23
sS'outFile'
p24
S'/home/azureuser_michael/Data/Variant_Calling/SV_Results/workspace/pyflow.data/logs/pyflow_tasks_stdout_log.txt'
p25
sS'env'
p26
NsS'nCores'
p27
I1
sS'cwd'
p28
S''
p29
s.