(dp0
S'isShellCmd'
p1
I00
sS'cmd'
p2
(lp3
S'/home/azureuser_michael/Utils/miniforge3/envs/manta_env/libexec/GetChromDepth'
p4
aS'--ref'
p5
aS'/home/azureuser_michael/Data/Read_Alignment/hg_38.fa'
p6
aS'--align-file'
p7
aS'/home/azureuser_michael/Data/Post_Processing/CA.bam'
p8
aS'--output'
p9
aS'/home/azureuser_michael/Data/Variant_Calling/SV_Results/workspace/chromDepth.txt.tmpdir/chromDepth.txt.000.txt.tmpdir/chromDepth.txt.000.txt_475_chr3_KV766192v1_fix'
p10
aS'--chrom'
p11
aS'chr3_KV766192v1_fix'
p12
asS'errFile'
p13
S'/home/azureuser_michael/Data/Variant_Calling/SV_Results/workspace/pyflow.data/logs/pyflow_tasks_stderr_log.txt'
p14
sS'outFile'
p15
S'/home/azureuser_michael/Data/Variant_Calling/SV_Results/workspace/pyflow.data/logs/pyflow_tasks_stdout_log.txt'
p16
sS'env'
p17
NsS'nCores'
p18
I1
sS'cwd'
p19
S''
p20
s.