(dp0
S'isShellCmd'
p1
I00
sS'cmd'
p2
(lp3
S'/home/azureuser_michael/Utils/miniforge3/envs/manta_env/libexec/cat.py'
p4
aS'--output'
p5
aS'/home/azureuser_michael/Data/Variant_Calling/SV_Results/workspace/chromDepth.txt.tmpdir/chromDepth.txt.000.txt'
p6
aS'/home/azureuser_michael/Data/Variant_Calling/SV_Results/workspace/chromDepth.txt.tmpdir/chromDepth.txt.000.txt.tmpdir/chromDepth.txt.000.txt_000_chr1'
p7
aS'/home/azureuser_michael/Data/Variant_Calling/SV_Results/workspace/chromDepth.txt.tmpdir/chromDepth.txt.000.txt.tmpdir/chromDepth.txt.000.txt_001_chr10'
p8
aS'/home/azureuser_michael/Data/Variant_Calling/SV_Results/workspace/chromDepth.txt.tmpdir/chromDepth.txt.000.txt.tmpdir/chromDepth.txt.000.txt_002_chr11'
p9
aS'/home/azureuser_michael/Data/Variant_Calling/SV_Results/workspace/chromDepth.txt.tmpdir/chromDepth.txt.000.txt.tmpdir/chromDepth.txt.000.txt_003_chr11_KI270721v1_random'
p10
aS'/home/azureuser_michael/Data/Variant_Calling/SV_Results/workspace/chromDepth.txt.tmpdir/chromDepth.txt.000.txt.tmpdir/chromDepth.txt.000.txt_004_chr12'
p11
aS'/home/azureuser_michael/Data/Variant_Calling/SV_Results/workspace/chromDepth.txt.tmpdir/chromDepth.txt.000.txt.tmpdir/chromDepth.txt.000.txt_005_chr13'
p12
aS'/home/azureuser_michael/Data/Variant_Calling/SV_Results/workspace/chromDepth.txt.tmpdir/chromDepth.txt.000.txt.tmpdir/chromDepth.txt.000.txt_006_chr14'
p13
aS'/home/azureuser_michael/Data/Variant_Calling/SV_Results/workspace/chromDepth.txt.tmpdir/chromDepth.txt.000.txt.tmpdir/chromDepth.txt.000.txt_007_chr14_GL000009v2_random'
p14
aS'/home/azureuser_michael/Data/Variant_Calling/SV_Results/workspace/chromDepth.txt.tmpdir/chromDepth.txt.000.txt.tmpdir/chromDepth.txt.000.txt_008_chr14_GL000225v1_random'
p15
aS'/home/azureuser_michael/Data/Variant_Calling/SV_Results/workspace/chromDepth.txt.tmpdir/chromDepth.txt.000.txt.tmpdir/chromDepth.txt.000.txt_009_chr14_KI270722v1_random'
p16
aS'/home/azureuser_michael/Data/Variant_Calling/SV_Results/workspace/chromDepth.txt.tmpdir/chromDepth.txt.000.txt.tmpdir/chromDepth.txt.000.txt_010_chr14_GL000194v1_random'
p17
aS'/home/azureuser_michael/Data/Variant_Calling/SV_Results/workspace/chromDepth.txt.tmpdir/chromDepth.txt.000.txt.tmpdir/chromDepth.txt.000.txt_011_chr14_KI270723v1_random_to_012_chr14_KI270724v1_random'
p18
aS'/home/azureuser_michael/Data/Variant_Calling/SV_Results/workspace/chromDepth.txt.tmpdir/chromDepth.txt.000.txt.tmpdir/chromDepth.txt.000.txt_013_chr14_KI270725v1_random'
p19
aS'/home/azureuser_michael/Data/Variant_Calling/SV_Results/workspace/chromDepth.txt.tmpdir/chromDepth.txt.000.txt.tmpdir/chromDepth.txt.000.txt_014_chr14_KI270726v1_random'
p20
aS'/home/azureuser_michael/Data/Variant_Calling/SV_Results/workspace/chromDepth.txt.tmpdir/chromDepth.txt.000.txt.tmpdir/chromDepth.txt.000.txt_015_chr15'
p21
aS'/home/azureuser_michael/Data/Variant_Calling/SV_Results/workspace/chromDepth.txt.tmpdir/chromDepth.txt.000.txt.tmpdir/chromDepth.txt.000.txt_016_chr15_KI270727v1_random'
p22
aS'/home/azureuser_michael/Data/Variant_Calling/SV_Results/workspace/chromDepth.txt.tmpdir/chromDepth.txt.000.txt.tmpdir/chromDepth.txt.000.txt_017_chr16'
p23
aS'/home/azureuser_michael/Data/Variant_Calling/SV_Results/workspace/chromDepth.txt.tmpdir/chromDepth.txt.000.txt.tmpdir/chromDepth.txt.000.txt_018_chr16_KI270728v1_random'
p24
aS'/home/azureuser_michael/Data/Variant_Calling/SV_Results/workspace/chromDepth.txt.tmpdir/chromDepth.txt.000.txt.tmpdir/chromDepth.txt.000.txt_019_chr17'
p25
aS'/home/azureuser_michael/Data/Variant_Calling/SV_Results/workspace/chromDepth.txt.tmpdir/chromDepth.txt.000.txt.tmpdir/chromDepth.txt.000.txt_020_chr17_GL000205v2_random'
p26
aS'/home/azureuser_michael/Data/Variant_Calling/SV_Results/workspace/chromDepth.txt.tmpdir/chromDepth.txt.000.txt.tmpdir/chromDepth.txt.000.txt_021_chr17_KI270729v1_random'
p27
aS'/home/azureuser_michael/Data/Variant_Calling/SV_Results/workspace/chromDepth.txt.tmpdir/chromDepth.txt.000.txt.tmpdir/chromDepth.txt.000.txt_022_chr17_KI270730v1_random'
p28
aS'/home/azureuser_michael/Data/Variant_Calling/SV_Results/workspace/chromDepth.txt.tmpdir/chromDepth.txt.000.txt.tmpdir/chromDepth.txt.000.txt_023_chr18'
p29
aS'/home/azureuser_michael/Data/Variant_Calling/SV_Results/workspace/chromDepth.txt.tmpdir/chromDepth.txt.000.txt.tmpdir/chromDepth.txt.000.txt_024_chr19'
p30
aS'/home/azureuser_michael/Data/Variant_Calling/SV_Results/workspace/chromDepth.txt.tmpdir/chromDepth.txt.000.txt.tmpdir/chromDepth.txt.000.txt_025_chr1_KI270706v1_random'
p31
aS'/home/azureuser_michael/Data/Variant_Calling/SV_Results/workspace/chromDepth.txt.tmpdir/chromDepth.txt.000.txt.tmpdir/chromDepth.txt.000.txt_026_chr1_KI270707v1_random_to_027_chr1_KI270708v1_random'
p32
aS'/home/azureuser_michael/Data/Variant_Calling/SV_Results/workspace/chromDepth.txt.tmpdir/chromDepth.txt.000.txt.tmpdir/chromDepth.txt.000.txt_028_chr1_KI270709v1_random_to_030_chr1_KI270711v1_random'
p33
aS'/home/azureuser_michael/Data/Variant_Calling/SV_Results/workspace/chromDepth.txt.tmpdir/chromDepth.txt.000.txt.tmpdir/chromDepth.txt.000.txt_031_chr1_KI270712v1_random'
p34
aS'/home/azureuser_michael/Data/Variant_Calling/SV_Results/workspace/chromDepth.txt.tmpdir/chromDepth.txt.000.txt.tmpdir/chromDepth.txt.000.txt_032_chr1_KI270713v1_random_to_033_chr1_KI270714v1_random'
p35
aS'/home/azureuser_michael/Data/Variant_Calling/SV_Results/workspace/chromDepth.txt.tmpdir/chromDepth.txt.000.txt.tmpdir/chromDepth.txt.000.txt_034_chr2'
p36
aS'/home/azureuser_michael/Data/Variant_Calling/SV_Results/workspace/chromDepth.txt.tmpdir/chromDepth.txt.000.txt.tmpdir/chromDepth.txt.000.txt_035_chr20'
p37
aS'/home/azureuser_michael/Data/Variant_Calling/SV_Results/workspace/chromDepth.txt.tmpdir/chromDepth.txt.000.txt.tmpdir/chromDepth.txt.000.txt_036_chr21'
p38
aS'/home/azureuser_michael/Data/Variant_Calling/SV_Results/workspace/chromDepth.txt.tmpdir/chromDepth.txt.000.txt.tmpdir/chromDepth.txt.000.txt_037_chr22'
p39
aS'/home/azureuser_michael/Data/Variant_Calling/SV_Results/workspace/chromDepth.txt.tmpdir/chromDepth.txt.000.txt.tmpdir/chromDepth.txt.000.txt_038_chr22_KI270731v1_random_to_039_chr22_KI270732v1_random'
p40
aS'/home/azureuser_michael/Data/Variant_Calling/SV_Results/workspace/chromDepth.txt.tmpdir/chromDepth.txt.000.txt.tmpdir/chromDepth.txt.000.txt_040_chr22_KI270733v1_random'
p41
aS'/home/azureuser_michael/Data/Variant_Calling/SV_Results/workspace/chromDepth.txt.tmpdir/chromDepth.txt.000.txt.tmpdir/chromDepth.txt.000.txt_041_chr22_KI270734v1_random'
p42
aS'/home/azureuser_michael/Data/Variant_Calling/SV_Results/workspace/chromDepth.txt.tmpdir/chromDepth.txt.000.txt.tmpdir/chromDepth.txt.000.txt_042_chr22_KI270735v1_random'
p43
aS'/home/azureuser_michael/Data/Variant_Calling/SV_Results/workspace/chromDepth.txt.tmpdir/chromDepth.txt.000.txt.tmpdir/chromDepth.txt.000.txt_043_chr22_KI270736v1_random'
p44
aS'/home/azureuser_michael/Data/Variant_Calling/SV_Results/workspace/chromDepth.txt.tmpdir/chromDepth.txt.000.txt.tmpdir/chromDepth.txt.000.txt_044_chr22_KI270737v1_random'
p45
aS'/home/azureuser_michael/Data/Variant_Calling/SV_Results/workspace/chromDepth.txt.tmpdir/chromDepth.txt.000.txt.tmpdir/chromDepth.txt.000.txt_045_chr22_KI270738v1_random_to_046_chr22_KI270739v1_random'
p46
aS'/home/azureuser_michael/Data/Variant_Calling/SV_Results/workspace/chromDepth.txt.tmpdir/chromDepth.txt.000.txt.tmpdir/chromDepth.txt.000.txt_047_chr2_KI270715v1_random'
p47
aS'/home/azureuser_michael/Data/Variant_Calling/SV_Results/workspace/chromDepth.txt.tmpdir/chromDepth.txt.000.txt.tmpdir/chromDepth.txt.000.txt_048_chr2_KI270716v1_random'
p48
aS'/home/azureuser_michael/Data/Variant_Calling/SV_Results/workspace/chromDepth.txt.tmpdir/chromDepth.txt.000.txt.tmpdir/chromDepth.txt.000.txt_049_chr3'
p49
aS'/home/azureuser_michael/Data/Variant_Calling/SV_Results/workspace/chromDepth.txt.tmpdir/chromDepth.txt.000.txt.tmpdir/chromDepth.txt.000.txt_050_chr3_GL000221v1_random'
p50
aS'/home/azureuser_michael/Data/Variant_Calling/SV_Results/workspace/chromDepth.txt.tmpdir/chromDepth.txt.000.txt.tmpdir/chromDepth.txt.000.txt_051_chr4'
p51
aS'/home/azureuser_michael/Data/Variant_Calling/SV_Results/workspace/chromDepth.txt.tmpdir/chromDepth.txt.000.txt.tmpdir/chromDepth.txt.000.txt_052_chr4_GL000008v2_random'
p52
aS'/home/azureuser_michael/Data/Variant_Calling/SV_Results/workspace/chromDepth.txt.tmpdir/chromDepth.txt.000.txt.tmpdir/chromDepth.txt.000.txt_053_chr5'
p53
aS'/home/azureuser_michael/Data/Variant_Calling/SV_Results/workspace/chromDepth.txt.tmpdir/chromDepth.txt.000.txt.tmpdir/chromDepth.txt.000.txt_054_chr5_GL000208v1_random'
p54
aS'/home/azureuser_michael/Data/Variant_Calling/SV_Results/workspace/chromDepth.txt.tmpdir/chromDepth.txt.000.txt.tmpdir/chromDepth.txt.000.txt_055_chr6'
p55
aS'/home/azureuser_michael/Data/Variant_Calling/SV_Results/workspace/chromDepth.txt.tmpdir/chromDepth.txt.000.txt.tmpdir/chromDepth.txt.000.txt_056_chr7'
p56
aS'/home/azureuser_michael/Data/Variant_Calling/SV_Results/workspace/chromDepth.txt.tmpdir/chromDepth.txt.000.txt.tmpdir/chromDepth.txt.000.txt_057_chr8'
p57
aS'/home/azureuser_michael/Data/Variant_Calling/SV_Results/workspace/chromDepth.txt.tmpdir/chromDepth.txt.000.txt.tmpdir/chromDepth.txt.000.txt_058_chr9'
p58
aS'/home/azureuser_michael/Data/Variant_Calling/SV_Results/workspace/chromDepth.txt.tmpdir/chromDepth.txt.000.txt.tmpdir/chromDepth.txt.000.txt_059_chr9_KI270717v1_random_to_060_chr9_KI270718v1_random'
p59
aS'/home/azureuser_michael/Data/Variant_Calling/SV_Results/workspace/chromDepth.txt.tmpdir/chromDepth.txt.000.txt.tmpdir/chromDepth.txt.000.txt_061_chr9_KI270719v1_random'
p60
aS'/home/azureuser_michael/Data/Variant_Calling/SV_Results/workspace/chromDepth.txt.tmpdir/chromDepth.txt.000.txt.tmpdir/chromDepth.txt.000.txt_062_chr9_KI270720v1_random'
p61
aS'/home/azureuser_michael/Data/Variant_Calling/SV_Results/workspace/chromDepth.txt.tmpdir/chromDepth.txt.000.txt.tmpdir/chromDepth.txt.000.txt_063_chr1_KI270762v1_alt'
p62
aS'/home/azureuser_michael/Data/Variant_Calling/SV_Results/workspace/chromDepth.txt.tmpdir/chromDepth.txt.000.txt.tmpdir/chromDepth.txt.000.txt_064_chr1_KI270766v1_alt'
p63
aS'/home/azureuser_michael/Data/Variant_Calling/SV_Results/workspace/chromDepth.txt.tmpdir/chromDepth.txt.000.txt.tmpdir/chromDepth.txt.000.txt_065_chr1_KI270760v1_alt'
p64
aS'/home/azureuser_michael/Data/Variant_Calling/SV_Results/workspace/chromDepth.txt.tmpdir/chromDepth.txt.000.txt.tmpdir/chromDepth.txt.000.txt_066_chr1_KI270765v1_alt'
p65
aS'/home/azureuser_michael/Data/Variant_Calling/SV_Results/workspace/chromDepth.txt.tmpdir/chromDepth.txt.000.txt.tmpdir/chromDepth.txt.000.txt_067_chr1_GL383518v1_alt'
p66
aS'/home/azureuser_michael/Data/Variant_Calling/SV_Results/workspace/chromDepth.txt.tmpdir/chromDepth.txt.000.txt.tmpdir/chromDepth.txt.000.txt_068_chr1_GL383519v1_alt'
p67
aS'/home/azureuser_michael/Data/Variant_Calling/SV_Results/workspace/chromDepth.txt.tmpdir/chromDepth.txt.000.txt.tmpdir/chromDepth.txt.000.txt_069_chr1_GL383520v2_alt'
p68
aS'/home/azureuser_michael/Data/Variant_Calling/SV_Results/workspace/chromDepth.txt.tmpdir/chromDepth.txt.000.txt.tmpdir/chromDepth.txt.000.txt_070_chr1_KI270764v1_alt'
p69
aS'/home/azureuser_michael/Data/Variant_Calling/SV_Results/workspace/chromDepth.txt.tmpdir/chromDepth.txt.000.txt.tmpdir/chromDepth.txt.000.txt_071_chr1_KI270763v1_alt'
p70
aS'/home/azureuser_michael/Data/Variant_Calling/SV_Results/workspace/chromDepth.txt.tmpdir/chromDepth.txt.000.txt.tmpdir/chromDepth.txt.000.txt_072_chr1_KI270759v1_alt'
p71
aS'/home/azureuser_michael/Data/Variant_Calling/SV_Results/workspace/chromDepth.txt.tmpdir/chromDepth.txt.000.txt.tmpdir/chromDepth.txt.000.txt_073_chr1_KI270761v1_alt'
p72
aS'/home/azureuser_michael/Data/Variant_Calling/SV_Results/workspace/chromDepth.txt.tmpdir/chromDepth.txt.000.txt.tmpdir/chromDepth.txt.000.txt_074_chr2_KI270770v1_alt'
p73
aS'/home/azureuser_michael/Data/Variant_Calling/SV_Results/workspace/chromDepth.txt.tmpdir/chromDepth.txt.000.txt.tmpdir/chromDepth.txt.000.txt_075_chr2_KI270773v1_alt'
p74
aS'/home/azureuser_michael/Data/Variant_Calling/SV_Results/workspace/chromDepth.txt.tmpdir/chromDepth.txt.000.txt.tmpdir/chromDepth.txt.000.txt_076_chr2_KI270774v1_alt'
p75
aS'/home/azureuser_michael/Data/Variant_Calling/SV_Results/workspace/chromDepth.txt.tmpdir/chromDepth.txt.000.txt.tmpdir/chromDepth.txt.000.txt_077_chr2_KI270769v1_alt'
p76
aS'/home/azureuser_michael/Data/Variant_Calling/SV_Results/workspace/chromDepth.txt.tmpdir/chromDepth.txt.000.txt.tmpdir/chromDepth.txt.000.txt_078_chr2_GL383521v1_alt'
p77
aS'/home/azureuser_michael/Data/Variant_Calling/SV_Results/workspace/chromDepth.txt.tmpdir/chromDepth.txt.000.txt.tmpdir/chromDepth.txt.000.txt_079_chr2_KI270772v1_alt'
p78
aS'/home/azureuser_michael/Data/Variant_Calling/SV_Results/workspace/chromDepth.txt.tmpdir/chromDepth.txt.000.txt.tmpdir/chromDepth.txt.000.txt_080_chr2_KI270775v1_alt'
p79
aS'/home/azureuser_michael/Data/Variant_Calling/SV_Results/workspace/chromDepth.txt.tmpdir/chromDepth.txt.000.txt.tmpdir/chromDepth.txt.000.txt_081_chr2_KI270771v1_alt'
p80
aS'/home/azureuser_michael/Data/Variant_Calling/SV_Results/workspace/chromDepth.txt.tmpdir/chromDepth.txt.000.txt.tmpdir/chromDepth.txt.000.txt_082_chr2_KI270768v1_alt'
p81
aS'/home/azureuser_michael/Data/Variant_Calling/SV_Results/workspace/chromDepth.txt.tmpdir/chromDepth.txt.000.txt.tmpdir/chromDepth.txt.000.txt_083_chr2_GL582966v2_alt'
p82
aS'/home/azureuser_michael/Data/Variant_Calling/SV_Results/workspace/chromDepth.txt.tmpdir/chromDepth.txt.000.txt.tmpdir/chromDepth.txt.000.txt_084_chr2_GL383522v1_alt'
p83
aS'/home/azureuser_michael/Data/Variant_Calling/SV_Results/workspace/chromDepth.txt.tmpdir/chromDepth.txt.000.txt.tmpdir/chromDepth.txt.000.txt_085_chr2_KI270776v1_alt'
p84
aS'/home/azureuser_michael/Data/Variant_Calling/SV_Results/workspace/chromDepth.txt.tmpdir/chromDepth.txt.000.txt.tmpdir/chromDepth.txt.000.txt_086_chr2_KI270767v1_alt'
p85
aS'/home/azureuser_michael/Data/Variant_Calling/SV_Results/workspace/chromDepth.txt.tmpdir/chromDepth.txt.000.txt.tmpdir/chromDepth.txt.000.txt_087_chr3_JH636055v2_alt'
p86
aS'/home/azureuser_michael/Data/Variant_Calling/SV_Results/workspace/chromDepth.txt.tmpdir/chromDepth.txt.000.txt.tmpdir/chromDepth.txt.000.txt_088_chr3_KI270783v1_alt'
p87
aS'/home/azureuser_michael/Data/Variant_Calling/SV_Results/workspace/chromDepth.txt.tmpdir/chromDepth.txt.000.txt.tmpdir/chromDepth.txt.000.txt_089_chr3_KI270780v1_alt'
p88
aS'/home/azureuser_michael/Data/Variant_Calling/SV_Results/workspace/chromDepth.txt.tmpdir/chromDepth.txt.000.txt.tmpdir/chromDepth.txt.000.txt_090_chr3_GL383526v1_alt'
p89
aS'/home/azureuser_michael/Data/Variant_Calling/SV_Results/workspace/chromDepth.txt.tmpdir/chromDepth.txt.000.txt.tmpdir/chromDepth.txt.000.txt_091_chr3_KI270777v1_alt'
p90
aS'/home/azureuser_michael/Data/Variant_Calling/SV_Results/workspace/chromDepth.txt.tmpdir/chromDepth.txt.000.txt.tmpdir/chromDepth.txt.000.txt_092_chr3_KI270778v1_alt'
p91
aS'/home/azureuser_michael/Data/Variant_Calling/SV_Results/workspace/chromDepth.txt.tmpdir/chromDepth.txt.000.txt.tmpdir/chromDepth.txt.000.txt_093_chr3_KI270781v1_alt'
p92
aS'/home/azureuser_michael/Data/Variant_Calling/SV_Results/workspace/chromDepth.txt.tmpdir/chromDepth.txt.000.txt.tmpdir/chromDepth.txt.000.txt_094_chr3_KI270779v1_alt'
p93
aS'/home/azureuser_michael/Data/Variant_Calling/SV_Results/workspace/chromDepth.txt.tmpdir/chromDepth.txt.000.txt.tmpdir/chromDepth.txt.000.txt_095_chr3_KI270782v1_alt'
p94
aS'/home/azureuser_michael/Data/Variant_Calling/SV_Results/workspace/chromDepth.txt.tmpdir/chromDepth.txt.000.txt.tmpdir/chromDepth.txt.000.txt_096_chr3_KI270784v1_alt'
p95
aS'/home/azureuser_michael/Data/Variant_Calling/SV_Results/workspace/chromDepth.txt.tmpdir/chromDepth.txt.000.txt.tmpdir/chromDepth.txt.000.txt_097_chr4_KI270790v1_alt'
p96
aS'/home/azureuser_michael/Data/Variant_Calling/SV_Results/workspace/chromDepth.txt.tmpdir/chromDepth.txt.000.txt.tmpdir/chromDepth.txt.000.txt_098_chr4_GL383528v1_alt'
p97
aS'/home/azureuser_michael/Data/Variant_Calling/SV_Results/workspace/chromDepth.txt.tmpdir/chromDepth.txt.000.txt.tmpdir/chromDepth.txt.000.txt_099_chr4_KI270787v1_alt'
p98
aS'/home/azureuser_michael/Data/Variant_Calling/SV_Results/workspace/chromDepth.txt.tmpdir/chromDepth.txt.000.txt.tmpdir/chromDepth.txt.000.txt_100_chr4_GL000257v2_alt'
p99
aS'/home/azureuser_michael/Data/Variant_Calling/SV_Results/workspace/chromDepth.txt.tmpdir/chromDepth.txt.000.txt.tmpdir/chromDepth.txt.000.txt_101_chr4_KI270788v1_alt'
p100
aS'/home/azureuser_michael/Data/Variant_Calling/SV_Results/workspace/chromDepth.txt.tmpdir/chromDepth.txt.000.txt.tmpdir/chromDepth.txt.000.txt_102_chr4_GL383527v1_alt'
p101
aS'/home/azureuser_michael/Data/Variant_Calling/SV_Results/workspace/chromDepth.txt.tmpdir/chromDepth.txt.000.txt.tmpdir/chromDepth.txt.000.txt_103_chr4_KI270785v1_alt'
p102
aS'/home/azureuser_michael/Data/Variant_Calling/SV_Results/workspace/chromDepth.txt.tmpdir/chromDepth.txt.000.txt.tmpdir/chromDepth.txt.000.txt_104_chr4_KI270789v1_alt'
p103
aS'/home/azureuser_michael/Data/Variant_Calling/SV_Results/workspace/chromDepth.txt.tmpdir/chromDepth.txt.000.txt.tmpdir/chromDepth.txt.000.txt_105_chr4_KI270786v1_alt'
p104
aS'/home/azureuser_michael/Data/Variant_Calling/SV_Results/workspace/chromDepth.txt.tmpdir/chromDepth.txt.000.txt.tmpdir/chromDepth.txt.000.txt_106_chr5_KI270793v1_alt'
p105
aS'/home/azureuser_michael/Data/Variant_Calling/SV_Results/workspace/chromDepth.txt.tmpdir/chromDepth.txt.000.txt.tmpdir/chromDepth.txt.000.txt_107_chr5_KI270792v1_alt'
p106
aS'/home/azureuser_michael/Data/Variant_Calling/SV_Results/workspace/chromDepth.txt.tmpdir/chromDepth.txt.000.txt.tmpdir/chromDepth.txt.000.txt_108_chr5_KI270791v1_alt'
p107
aS'/home/azureuser_michael/Data/Variant_Calling/SV_Results/workspace/chromDepth.txt.tmpdir/chromDepth.txt.000.txt.tmpdir/chromDepth.txt.000.txt_109_chr5_GL383532v1_alt'
p108
aS'/home/azureuser_michael/Data/Variant_Calling/SV_Results/workspace/chromDepth.txt.tmpdir/chromDepth.txt.000.txt.tmpdir/chromDepth.txt.000.txt_110_chr5_GL949742v1_alt'
p109
aS'/home/azureuser_michael/Data/Variant_Calling/SV_Results/workspace/chromDepth.txt.tmpdir/chromDepth.txt.000.txt.tmpdir/chromDepth.txt.000.txt_111_chr5_KI270794v1_alt'
p110
aS'/home/azureuser_michael/Data/Variant_Calling/SV_Results/workspace/chromDepth.txt.tmpdir/chromDepth.txt.000.txt.tmpdir/chromDepth.txt.000.txt_112_chr5_GL339449v2_alt'
p111
aS'/home/azureuser_michael/Data/Variant_Calling/SV_Results/workspace/chromDepth.txt.tmpdir/chromDepth.txt.000.txt.tmpdir/chromDepth.txt.000.txt_113_chr5_GL383530v1_alt'
p112
aS'/home/azureuser_michael/Data/Variant_Calling/SV_Results/workspace/chromDepth.txt.tmpdir/chromDepth.txt.000.txt.tmpdir/chromDepth.txt.000.txt_114_chr5_KI270796v1_alt'
p113
aS'/home/azureuser_michael/Data/Variant_Calling/SV_Results/workspace/chromDepth.txt.tmpdir/chromDepth.txt.000.txt.tmpdir/chromDepth.txt.000.txt_115_chr5_GL383531v1_alt'
p114
aS'/home/azureuser_michael/Data/Variant_Calling/SV_Results/workspace/chromDepth.txt.tmpdir/chromDepth.txt.000.txt.tmpdir/chromDepth.txt.000.txt_116_chr5_KI270795v1_alt'
p115
aS'/home/azureuser_michael/Data/Variant_Calling/SV_Results/workspace/chromDepth.txt.tmpdir/chromDepth.txt.000.txt.tmpdir/chromDepth.txt.000.txt_117_chr6_GL000250v2_alt'
p116
aS'/home/azureuser_michael/Data/Variant_Calling/SV_Results/workspace/chromDepth.txt.tmpdir/chromDepth.txt.000.txt.tmpdir/chromDepth.txt.000.txt_118_chr6_KI270800v1_alt'
p117
aS'/home/azureuser_michael/Data/Variant_Calling/SV_Results/workspace/chromDepth.txt.tmpdir/chromDepth.txt.000.txt.tmpdir/chromDepth.txt.000.txt_119_chr6_KI270799v1_alt'
p118
aS'/home/azureuser_michael/Data/Variant_Calling/SV_Results/workspace/chromDepth.txt.tmpdir/chromDepth.txt.000.txt.tmpdir/chromDepth.txt.000.txt_120_chr6_GL383533v1_alt'
p119
aS'/home/azureuser_michael/Data/Variant_Calling/SV_Results/workspace/chromDepth.txt.tmpdir/chromDepth.txt.000.txt.tmpdir/chromDepth.txt.000.txt_121_chr6_KI270801v1_alt'
p120
aS'/home/azureuser_michael/Data/Variant_Calling/SV_Results/workspace/chromDepth.txt.tmpdir/chromDepth.txt.000.txt.tmpdir/chromDepth.txt.000.txt_122_chr6_KI270802v1_alt'
p121
aS'/home/azureuser_michael/Data/Variant_Calling/SV_Results/workspace/chromDepth.txt.tmpdir/chromDepth.txt.000.txt.tmpdir/chromDepth.txt.000.txt_123_chr6_KB021644v2_alt'
p122
aS'/home/azureuser_michael/Data/Variant_Calling/SV_Results/workspace/chromDepth.txt.tmpdir/chromDepth.txt.000.txt.tmpdir/chromDepth.txt.000.txt_124_chr6_KI270797v1_alt'
p123
aS'/home/azureuser_michael/Data/Variant_Calling/SV_Results/workspace/chromDepth.txt.tmpdir/chromDepth.txt.000.txt.tmpdir/chromDepth.txt.000.txt_125_chr6_KI270798v1_alt'
p124
aS'/home/azureuser_michael/Data/Variant_Calling/SV_Results/workspace/chromDepth.txt.tmpdir/chromDepth.txt.000.txt.tmpdir/chromDepth.txt.000.txt_126_chr7_KI270804v1_alt'
p125
aS'/home/azureuser_michael/Data/Variant_Calling/SV_Results/workspace/chromDepth.txt.tmpdir/chromDepth.txt.000.txt.tmpdir/chromDepth.txt.000.txt_127_chr7_KI270809v1_alt'
p126
aS'/home/azureuser_michael/Data/Variant_Calling/SV_Results/workspace/chromDepth.txt.tmpdir/chromDepth.txt.000.txt.tmpdir/chromDepth.txt.000.txt_128_chr7_KI270806v1_alt'
p127
aS'/home/azureuser_michael/Data/Variant_Calling/SV_Results/workspace/chromDepth.txt.tmpdir/chromDepth.txt.000.txt.tmpdir/chromDepth.txt.000.txt_129_chr7_GL383534v2_alt'
p128
aS'/home/azureuser_michael/Data/Variant_Calling/SV_Results/workspace/chromDepth.txt.tmpdir/chromDepth.txt.000.txt.tmpdir/chromDepth.txt.000.txt_130_chr7_KI270803v1_alt'
p129
aS'/home/azureuser_michael/Data/Variant_Calling/SV_Results/workspace/chromDepth.txt.tmpdir/chromDepth.txt.000.txt.tmpdir/chromDepth.txt.000.txt_131_chr7_KI270808v1_alt'
p130
aS'/home/azureuser_michael/Data/Variant_Calling/SV_Results/workspace/chromDepth.txt.tmpdir/chromDepth.txt.000.txt.tmpdir/chromDepth.txt.000.txt_132_chr7_KI270807v1_alt'
p131
aS'/home/azureuser_michael/Data/Variant_Calling/SV_Results/workspace/chromDepth.txt.tmpdir/chromDepth.txt.000.txt.tmpdir/chromDepth.txt.000.txt_133_chr7_KI270805v1_alt'
p132
aS'/home/azureuser_michael/Data/Variant_Calling/SV_Results/workspace/chromDepth.txt.tmpdir/chromDepth.txt.000.txt.tmpdir/chromDepth.txt.000.txt_134_chr8_KI270818v1_alt'
p133
aS'/home/azureuser_michael/Data/Variant_Calling/SV_Results/workspace/chromDepth.txt.tmpdir/chromDepth.txt.000.txt.tmpdir/chromDepth.txt.000.txt_135_chr8_KI270812v1_alt'
p134
aS'/home/azureuser_michael/Data/Variant_Calling/SV_Results/workspace/chromDepth.txt.tmpdir/chromDepth.txt.000.txt.tmpdir/chromDepth.txt.000.txt_136_chr8_KI270811v1_alt'
p135
aS'/home/azureuser_michael/Data/Variant_Calling/SV_Results/workspace/chromDepth.txt.tmpdir/chromDepth.txt.000.txt.tmpdir/chromDepth.txt.000.txt_137_chr8_KI270821v1_alt'
p136
aS'/home/azureuser_michael/Data/Variant_Calling/SV_Results/workspace/chromDepth.txt.tmpdir/chromDepth.txt.000.txt.tmpdir/chromDepth.txt.000.txt_138_chr8_KI270813v1_alt'
p137
aS'/home/azureuser_michael/Data/Variant_Calling/SV_Results/workspace/chromDepth.txt.tmpdir/chromDepth.txt.000.txt.tmpdir/chromDepth.txt.000.txt_139_chr8_KI270822v1_alt'
p138
aS'/home/azureuser_michael/Data/Variant_Calling/SV_Results/workspace/chromDepth.txt.tmpdir/chromDepth.txt.000.txt.tmpdir/chromDepth.txt.000.txt_140_chr8_KI270814v1_alt'
p139
aS'/home/azureuser_michael/Data/Variant_Calling/SV_Results/workspace/chromDepth.txt.tmpdir/chromDepth.txt.000.txt.tmpdir/chromDepth.txt.000.txt_141_chr8_KI270810v1_alt'
p140
aS'/home/azureuser_michael/Data/Variant_Calling/SV_Results/workspace/chromDepth.txt.tmpdir/chromDepth.txt.000.txt.tmpdir/chromDepth.txt.000.txt_142_chr8_KI270819v1_alt_to_143_chr8_KI270820v1_alt'
p141
aS'/home/azureuser_michael/Data/Variant_Calling/SV_Results/workspace/chromDepth.txt.tmpdir/chromDepth.txt.000.txt.tmpdir/chromDepth.txt.000.txt_144_chr8_KI270817v1_alt'
p142
aS'/home/azureuser_michael/Data/Variant_Calling/SV_Results/workspace/chromDepth.txt.tmpdir/chromDepth.txt.000.txt.tmpdir/chromDepth.txt.000.txt_145_chr8_KI270816v1_alt'
p143
aS'/home/azureuser_michael/Data/Variant_Calling/SV_Results/workspace/chromDepth.txt.tmpdir/chromDepth.txt.000.txt.tmpdir/chromDepth.txt.000.txt_146_chr8_KI270815v1_alt'
p144
aS'/home/azureuser_michael/Data/Variant_Calling/SV_Results/workspace/chromDepth.txt.tmpdir/chromDepth.txt.000.txt.tmpdir/chromDepth.txt.000.txt_147_chr9_GL383539v1_alt'
p145
aS'/home/azureuser_michael/Data/Variant_Calling/SV_Results/workspace/chromDepth.txt.tmpdir/chromDepth.txt.000.txt.tmpdir/chromDepth.txt.000.txt_148_chr9_GL383540v1_alt'
p146
aS'/home/azureuser_michael/Data/Variant_Calling/SV_Results/workspace/chromDepth.txt.tmpdir/chromDepth.txt.000.txt.tmpdir/chromDepth.txt.000.txt_149_chr9_GL383541v1_alt'
p147
aS'/home/azureuser_michael/Data/Variant_Calling/SV_Results/workspace/chromDepth.txt.tmpdir/chromDepth.txt.000.txt.tmpdir/chromDepth.txt.000.txt_150_chr9_GL383542v1_alt'
p148
aS'/home/azureuser_michael/Data/Variant_Calling/SV_Results/workspace/chromDepth.txt.tmpdir/chromDepth.txt.000.txt.tmpdir/chromDepth.txt.000.txt_151_chr9_KI270823v1_alt'
p149
aS'/home/azureuser_michael/Data/Variant_Calling/SV_Results/workspace/chromDepth.txt.tmpdir/chromDepth.txt.000.txt.tmpdir/chromDepth.txt.000.txt_152_chr10_GL383545v1_alt'
p150
aS'/home/azureuser_michael/Data/Variant_Calling/SV_Results/workspace/chromDepth.txt.tmpdir/chromDepth.txt.000.txt.tmpdir/chromDepth.txt.000.txt_153_chr10_KI270824v1_alt'
p151
aS'/home/azureuser_michael/Data/Variant_Calling/SV_Results/workspace/chromDepth.txt.tmpdir/chromDepth.txt.000.txt.tmpdir/chromDepth.txt.000.txt_154_chr10_GL383546v1_alt'
p152
aS'/home/azureuser_michael/Data/Variant_Calling/SV_Results/workspace/chromDepth.txt.tmpdir/chromDepth.txt.000.txt.tmpdir/chromDepth.txt.000.txt_155_chr10_KI270825v1_alt'
p153
aS'/home/azureuser_michael/Data/Variant_Calling/SV_Results/workspace/chromDepth.txt.tmpdir/chromDepth.txt.000.txt.tmpdir/chromDepth.txt.000.txt_156_chr11_KI270832v1_alt'
p154
aS'/home/azureuser_michael/Data/Variant_Calling/SV_Results/workspace/chromDepth.txt.tmpdir/chromDepth.txt.000.txt.tmpdir/chromDepth.txt.000.txt_157_chr11_KI270830v1_alt'
p155
aS'/home/azureuser_michael/Data/Variant_Calling/SV_Results/workspace/chromDepth.txt.tmpdir/chromDepth.txt.000.txt.tmpdir/chromDepth.txt.000.txt_158_chr11_KI270831v1_alt'
p156
aS'/home/azureuser_michael/Data/Variant_Calling/SV_Results/workspace/chromDepth.txt.tmpdir/chromDepth.txt.000.txt.tmpdir/chromDepth.txt.000.txt_159_chr11_KI270829v1_alt'
p157
aS'/home/azureuser_michael/Data/Variant_Calling/SV_Results/workspace/chromDepth.txt.tmpdir/chromDepth.txt.000.txt.tmpdir/chromDepth.txt.000.txt_160_chr11_GL383547v1_alt'
p158
aS'/home/azureuser_michael/Data/Variant_Calling/SV_Results/workspace/chromDepth.txt.tmpdir/chromDepth.txt.000.txt.tmpdir/chromDepth.txt.000.txt_161_chr11_JH159136v1_alt'
p159
aS'/home/azureuser_michael/Data/Variant_Calling/SV_Results/workspace/chromDepth.txt.tmpdir/chromDepth.txt.000.txt.tmpdir/chromDepth.txt.000.txt_162_chr11_JH159137v1_alt'
p160
aS'/home/azureuser_michael/Data/Variant_Calling/SV_Results/workspace/chromDepth.txt.tmpdir/chromDepth.txt.000.txt.tmpdir/chromDepth.txt.000.txt_163_chr11_KI270827v1_alt'
p161
aS'/home/azureuser_michael/Data/Variant_Calling/SV_Results/workspace/chromDepth.txt.tmpdir/chromDepth.txt.000.txt.tmpdir/chromDepth.txt.000.txt_164_chr11_KI270826v1_alt'
p162
aS'/home/azureuser_michael/Data/Variant_Calling/SV_Results/workspace/chromDepth.txt.tmpdir/chromDepth.txt.000.txt.tmpdir/chromDepth.txt.000.txt_165_chr12_GL877875v1_alt'
p163
aS'/home/azureuser_michael/Data/Variant_Calling/SV_Results/workspace/chromDepth.txt.tmpdir/chromDepth.txt.000.txt.tmpdir/chromDepth.txt.000.txt_166_chr12_GL877876v1_alt'
p164
aS'/home/azureuser_michael/Data/Variant_Calling/SV_Results/workspace/chromDepth.txt.tmpdir/chromDepth.txt.000.txt.tmpdir/chromDepth.txt.000.txt_167_chr12_KI270837v1_alt_to_168_chr12_GL383549v1_alt'
p165
aS'/home/azureuser_michael/Data/Variant_Calling/SV_Results/workspace/chromDepth.txt.tmpdir/chromDepth.txt.000.txt.tmpdir/chromDepth.txt.000.txt_169_chr12_KI270835v1_alt'
p166
aS'/home/azureuser_michael/Data/Variant_Calling/SV_Results/workspace/chromDepth.txt.tmpdir/chromDepth.txt.000.txt.tmpdir/chromDepth.txt.000.txt_170_chr12_GL383550v2_alt'
p167
aS'/home/azureuser_michael/Data/Variant_Calling/SV_Results/workspace/chromDepth.txt.tmpdir/chromDepth.txt.000.txt.tmpdir/chromDepth.txt.000.txt_171_chr12_GL383552v1_alt'
p168
aS'/home/azureuser_michael/Data/Variant_Calling/SV_Results/workspace/chromDepth.txt.tmpdir/chromDepth.txt.000.txt.tmpdir/chromDepth.txt.000.txt_172_chr12_GL383553v2_alt'
p169
aS'/home/azureuser_michael/Data/Variant_Calling/SV_Results/workspace/chromDepth.txt.tmpdir/chromDepth.txt.000.txt.tmpdir/chromDepth.txt.000.txt_173_chr12_KI270834v1_alt'
p170
aS'/home/azureuser_michael/Data/Variant_Calling/SV_Results/workspace/chromDepth.txt.tmpdir/chromDepth.txt.000.txt.tmpdir/chromDepth.txt.000.txt_174_chr12_GL383551v1_alt'
p171
aS'/home/azureuser_michael/Data/Variant_Calling/SV_Results/workspace/chromDepth.txt.tmpdir/chromDepth.txt.000.txt.tmpdir/chromDepth.txt.000.txt_175_chr12_KI270833v1_alt_to_176_chr12_KI270836v1_alt'
p172
aS'/home/azureuser_michael/Data/Variant_Calling/SV_Results/workspace/chromDepth.txt.tmpdir/chromDepth.txt.000.txt.tmpdir/chromDepth.txt.000.txt_177_chr13_KI270840v1_alt'
p173
aS'/home/azureuser_michael/Data/Variant_Calling/SV_Results/workspace/chromDepth.txt.tmpdir/chromDepth.txt.000.txt.tmpdir/chromDepth.txt.000.txt_178_chr13_KI270839v1_alt'
p174
aS'/home/azureuser_michael/Data/Variant_Calling/SV_Results/workspace/chromDepth.txt.tmpdir/chromDepth.txt.000.txt.tmpdir/chromDepth.txt.000.txt_179_chr13_KI270843v1_alt'
p175
aS'/home/azureuser_michael/Data/Variant_Calling/SV_Results/workspace/chromDepth.txt.tmpdir/chromDepth.txt.000.txt.tmpdir/chromDepth.txt.000.txt_180_chr13_KI270841v1_alt'
p176
aS'/home/azureuser_michael/Data/Variant_Calling/SV_Results/workspace/chromDepth.txt.tmpdir/chromDepth.txt.000.txt.tmpdir/chromDepth.txt.000.txt_181_chr13_KI270838v1_alt'
p177
aS'/home/azureuser_michael/Data/Variant_Calling/SV_Results/workspace/chromDepth.txt.tmpdir/chromDepth.txt.000.txt.tmpdir/chromDepth.txt.000.txt_182_chr13_KI270842v1_alt'
p178
aS'/home/azureuser_michael/Data/Variant_Calling/SV_Results/workspace/chromDepth.txt.tmpdir/chromDepth.txt.000.txt.tmpdir/chromDepth.txt.000.txt_183_chr14_KI270844v1_alt'
p179
aS'/home/azureuser_michael/Data/Variant_Calling/SV_Results/workspace/chromDepth.txt.tmpdir/chromDepth.txt.000.txt.tmpdir/chromDepth.txt.000.txt_184_chr14_KI270847v1_alt'
p180
aS'/home/azureuser_michael/Data/Variant_Calling/SV_Results/workspace/chromDepth.txt.tmpdir/chromDepth.txt.000.txt.tmpdir/chromDepth.txt.000.txt_185_chr14_KI270845v1_alt'
p181
aS'/home/azureuser_michael/Data/Variant_Calling/SV_Results/workspace/chromDepth.txt.tmpdir/chromDepth.txt.000.txt.tmpdir/chromDepth.txt.000.txt_186_chr14_KI270846v1_alt'
p182
aS'/home/azureuser_michael/Data/Variant_Calling/SV_Results/workspace/chromDepth.txt.tmpdir/chromDepth.txt.000.txt.tmpdir/chromDepth.txt.000.txt_187_chr15_KI270852v1_alt'
p183
aS'/home/azureuser_michael/Data/Variant_Calling/SV_Results/workspace/chromDepth.txt.tmpdir/chromDepth.txt.000.txt.tmpdir/chromDepth.txt.000.txt_188_chr15_KI270851v1_alt'
p184
aS'/home/azureuser_michael/Data/Variant_Calling/SV_Results/workspace/chromDepth.txt.tmpdir/chromDepth.txt.000.txt.tmpdir/chromDepth.txt.000.txt_189_chr15_KI270848v1_alt'
p185
aS'/home/azureuser_michael/Data/Variant_Calling/SV_Results/workspace/chromDepth.txt.tmpdir/chromDepth.txt.000.txt.tmpdir/chromDepth.txt.000.txt_190_chr15_GL383554v1_alt'
p186
aS'/home/azureuser_michael/Data/Variant_Calling/SV_Results/workspace/chromDepth.txt.tmpdir/chromDepth.txt.000.txt.tmpdir/chromDepth.txt.000.txt_191_chr15_KI270849v1_alt'
p187
aS'/home/azureuser_michael/Data/Variant_Calling/SV_Results/workspace/chromDepth.txt.tmpdir/chromDepth.txt.000.txt.tmpdir/chromDepth.txt.000.txt_192_chr15_GL383555v2_alt'
p188
aS'/home/azureuser_michael/Data/Variant_Calling/SV_Results/workspace/chromDepth.txt.tmpdir/chromDepth.txt.000.txt.tmpdir/chromDepth.txt.000.txt_193_chr15_KI270850v1_alt'
p189
aS'/home/azureuser_michael/Data/Variant_Calling/SV_Results/workspace/chromDepth.txt.tmpdir/chromDepth.txt.000.txt.tmpdir/chromDepth.txt.000.txt_194_chr16_KI270854v1_alt_to_195_chr16_KI270856v1_alt'
p190
aS'/home/azureuser_michael/Data/Variant_Calling/SV_Results/workspace/chromDepth.txt.tmpdir/chromDepth.txt.000.txt.tmpdir/chromDepth.txt.000.txt_196_chr16_KI270855v1_alt'
p191
aS'/home/azureuser_michael/Data/Variant_Calling/SV_Results/workspace/chromDepth.txt.tmpdir/chromDepth.txt.000.txt.tmpdir/chromDepth.txt.000.txt_197_chr16_KI270853v1_alt'
p192
aS'/home/azureuser_michael/Data/Variant_Calling/SV_Results/workspace/chromDepth.txt.tmpdir/chromDepth.txt.000.txt.tmpdir/chromDepth.txt.000.txt_198_chr16_GL383556v1_alt'
p193
aS'/home/azureuser_michael/Data/Variant_Calling/SV_Results/workspace/chromDepth.txt.tmpdir/chromDepth.txt.000.txt.tmpdir/chromDepth.txt.000.txt_199_chr16_GL383557v1_alt'
p194
aS'/home/azureuser_michael/Data/Variant_Calling/SV_Results/workspace/chromDepth.txt.tmpdir/chromDepth.txt.000.txt.tmpdir/chromDepth.txt.000.txt_200_chr17_GL383563v3_alt'
p195
aS'/home/azureuser_michael/Data/Variant_Calling/SV_Results/workspace/chromDepth.txt.tmpdir/chromDepth.txt.000.txt.tmpdir/chromDepth.txt.000.txt_201_chr17_KI270862v1_alt'
p196
aS'/home/azureuser_michael/Data/Variant_Calling/SV_Results/workspace/chromDepth.txt.tmpdir/chromDepth.txt.000.txt.tmpdir/chromDepth.txt.000.txt_202_chr17_KI270861v1_alt'
p197
aS'/home/azureuser_michael/Data/Variant_Calling/SV_Results/workspace/chromDepth.txt.tmpdir/chromDepth.txt.000.txt.tmpdir/chromDepth.txt.000.txt_203_chr17_KI270857v1_alt'
p198
aS'/home/azureuser_michael/Data/Variant_Calling/SV_Results/workspace/chromDepth.txt.tmpdir/chromDepth.txt.000.txt.tmpdir/chromDepth.txt.000.txt_204_chr17_JH159146v1_alt'
p199
aS'/home/azureuser_michael/Data/Variant_Calling/SV_Results/workspace/chromDepth.txt.tmpdir/chromDepth.txt.000.txt.tmpdir/chromDepth.txt.000.txt_205_chr17_JH159147v1_alt'
p200
aS'/home/azureuser_michael/Data/Variant_Calling/SV_Results/workspace/chromDepth.txt.tmpdir/chromDepth.txt.000.txt.tmpdir/chromDepth.txt.000.txt_206_chr17_GL383564v2_alt'
p201
aS'/home/azureuser_michael/Data/Variant_Calling/SV_Results/workspace/chromDepth.txt.tmpdir/chromDepth.txt.000.txt.tmpdir/chromDepth.txt.000.txt_207_chr17_GL000258v2_alt'
p202
aS'/home/azureuser_michael/Data/Variant_Calling/SV_Results/workspace/chromDepth.txt.tmpdir/chromDepth.txt.000.txt.tmpdir/chromDepth.txt.000.txt_208_chr17_GL383565v1_alt'
p203
aS'/home/azureuser_michael/Data/Variant_Calling/SV_Results/workspace/chromDepth.txt.tmpdir/chromDepth.txt.000.txt.tmpdir/chromDepth.txt.000.txt_209_chr17_KI270858v1_alt'
p204
aS'/home/azureuser_michael/Data/Variant_Calling/SV_Results/workspace/chromDepth.txt.tmpdir/chromDepth.txt.000.txt.tmpdir/chromDepth.txt.000.txt_210_chr17_KI270859v1_alt_to_211_chr17_GL383566v1_alt'
p205
aS'/home/azureuser_michael/Data/Variant_Calling/SV_Results/workspace/chromDepth.txt.tmpdir/chromDepth.txt.000.txt.tmpdir/chromDepth.txt.000.txt_212_chr17_KI270860v1_alt'
p206
aS'/home/azureuser_michael/Data/Variant_Calling/SV_Results/workspace/chromDepth.txt.tmpdir/chromDepth.txt.000.txt.tmpdir/chromDepth.txt.000.txt_213_chr18_KI270864v1_alt'
p207
aS'/home/azureuser_michael/Data/Variant_Calling/SV_Results/workspace/chromDepth.txt.tmpdir/chromDepth.txt.000.txt.tmpdir/chromDepth.txt.000.txt_214_chr18_GL383567v1_alt'
p208
aS'/home/azureuser_michael/Data/Variant_Calling/SV_Results/workspace/chromDepth.txt.tmpdir/chromDepth.txt.000.txt.tmpdir/chromDepth.txt.000.txt_215_chr18_GL383570v1_alt'
p209
aS'/home/azureuser_michael/Data/Variant_Calling/SV_Results/workspace/chromDepth.txt.tmpdir/chromDepth.txt.000.txt.tmpdir/chromDepth.txt.000.txt_216_chr18_GL383571v1_alt'
p210
aS'/home/azureuser_michael/Data/Variant_Calling/SV_Results/workspace/chromDepth.txt.tmpdir/chromDepth.txt.000.txt.tmpdir/chromDepth.txt.000.txt_217_chr18_GL383568v1_alt'
p211
aS'/home/azureuser_michael/Data/Variant_Calling/SV_Results/workspace/chromDepth.txt.tmpdir/chromDepth.txt.000.txt.tmpdir/chromDepth.txt.000.txt_218_chr18_GL383569v1_alt'
p212
aS'/home/azureuser_michael/Data/Variant_Calling/SV_Results/workspace/chromDepth.txt.tmpdir/chromDepth.txt.000.txt.tmpdir/chromDepth.txt.000.txt_219_chr18_GL383572v1_alt'
p213
aS'/home/azureuser_michael/Data/Variant_Calling/SV_Results/workspace/chromDepth.txt.tmpdir/chromDepth.txt.000.txt.tmpdir/chromDepth.txt.000.txt_220_chr18_KI270863v1_alt'
p214
aS'/home/azureuser_michael/Data/Variant_Calling/SV_Results/workspace/chromDepth.txt.tmpdir/chromDepth.txt.000.txt.tmpdir/chromDepth.txt.000.txt_221_chr19_KI270868v1_alt_to_222_chr19_KI270865v1_alt'
p215
aS'/home/azureuser_michael/Data/Variant_Calling/SV_Results/workspace/chromDepth.txt.tmpdir/chromDepth.txt.000.txt.tmpdir/chromDepth.txt.000.txt_223_chr19_GL383573v1_alt'
p216
aS'/home/azureuser_michael/Data/Variant_Calling/SV_Results/workspace/chromDepth.txt.tmpdir/chromDepth.txt.000.txt.tmpdir/chromDepth.txt.000.txt_224_chr19_GL383575v2_alt'
p217
aS'/home/azureuser_michael/Data/Variant_Calling/SV_Results/workspace/chromDepth.txt.tmpdir/chromDepth.txt.000.txt.tmpdir/chromDepth.txt.000.txt_225_chr19_GL383576v1_alt'
p218
aS'/home/azureuser_michael/Data/Variant_Calling/SV_Results/workspace/chromDepth.txt.tmpdir/chromDepth.txt.000.txt.tmpdir/chromDepth.txt.000.txt_226_chr19_GL383574v1_alt_to_227_chr19_KI270866v1_alt'
p219
aS'/home/azureuser_michael/Data/Variant_Calling/SV_Results/workspace/chromDepth.txt.tmpdir/chromDepth.txt.000.txt.tmpdir/chromDepth.txt.000.txt_228_chr19_KI270867v1_alt'
p220
aS'/home/azureuser_michael/Data/Variant_Calling/SV_Results/workspace/chromDepth.txt.tmpdir/chromDepth.txt.000.txt.tmpdir/chromDepth.txt.000.txt_229_chr19_GL949746v1_alt'
p221
aS'/home/azureuser_michael/Data/Variant_Calling/SV_Results/workspace/chromDepth.txt.tmpdir/chromDepth.txt.000.txt.tmpdir/chromDepth.txt.000.txt_230_chr20_GL383577v2_alt'
p222
aS'/home/azureuser_michael/Data/Variant_Calling/SV_Results/workspace/chromDepth.txt.tmpdir/chromDepth.txt.000.txt.tmpdir/chromDepth.txt.000.txt_231_chr20_KI270869v1_alt_to_232_chr20_KI270871v1_alt'
p223
aS'/home/azureuser_michael/Data/Variant_Calling/SV_Results/workspace/chromDepth.txt.tmpdir/chromDepth.txt.000.txt.tmpdir/chromDepth.txt.000.txt_233_chr20_KI270870v1_alt'
p224
aS'/home/azureuser_michael/Data/Variant_Calling/SV_Results/workspace/chromDepth.txt.tmpdir/chromDepth.txt.000.txt.tmpdir/chromDepth.txt.000.txt_234_chr21_GL383578v2_alt'
p225
aS'/home/azureuser_michael/Data/Variant_Calling/SV_Results/workspace/chromDepth.txt.tmpdir/chromDepth.txt.000.txt.tmpdir/chromDepth.txt.000.txt_235_chr21_KI270874v1_alt'
p226
aS'/home/azureuser_michael/Data/Variant_Calling/SV_Results/workspace/chromDepth.txt.tmpdir/chromDepth.txt.000.txt.tmpdir/chromDepth.txt.000.txt_236_chr21_KI270873v1_alt'
p227
aS'/home/azureuser_michael/Data/Variant_Calling/SV_Results/workspace/chromDepth.txt.tmpdir/chromDepth.txt.000.txt.tmpdir/chromDepth.txt.000.txt_237_chr21_GL383579v2_alt'
p228
aS'/home/azureuser_michael/Data/Variant_Calling/SV_Results/workspace/chromDepth.txt.tmpdir/chromDepth.txt.000.txt.tmpdir/chromDepth.txt.000.txt_238_chr21_GL383580v2_alt_to_239_chr21_GL383581v2_alt'
p229
aS'/home/azureuser_michael/Data/Variant_Calling/SV_Results/workspace/chromDepth.txt.tmpdir/chromDepth.txt.000.txt.tmpdir/chromDepth.txt.000.txt_240_chr21_KI270872v1_alt'
p230
aS'/home/azureuser_michael/Data/Variant_Calling/SV_Results/workspace/chromDepth.txt.tmpdir/chromDepth.txt.000.txt.tmpdir/chromDepth.txt.000.txt_241_chr22_KI270875v1_alt'
p231
aS'/home/azureuser_michael/Data/Variant_Calling/SV_Results/workspace/chromDepth.txt.tmpdir/chromDepth.txt.000.txt.tmpdir/chromDepth.txt.000.txt_242_chr22_KI270878v1_alt'
p232
aS'/home/azureuser_michael/Data/Variant_Calling/SV_Results/workspace/chromDepth.txt.tmpdir/chromDepth.txt.000.txt.tmpdir/chromDepth.txt.000.txt_243_chr22_KI270879v1_alt'
p233
aS'/home/azureuser_michael/Data/Variant_Calling/SV_Results/workspace/chromDepth.txt.tmpdir/chromDepth.txt.000.txt.tmpdir/chromDepth.txt.000.txt_244_chr22_KI270876v1_alt'
p234
aS'/home/azureuser_michael/Data/Variant_Calling/SV_Results/workspace/chromDepth.txt.tmpdir/chromDepth.txt.000.txt.tmpdir/chromDepth.txt.000.txt_245_chr22_KI270877v1_alt_to_246_chr22_GL383583v2_alt'
p235
aS'/home/azureuser_michael/Data/Variant_Calling/SV_Results/workspace/chromDepth.txt.tmpdir/chromDepth.txt.000.txt.tmpdir/chromDepth.txt.000.txt_247_chr22_GL383582v2_alt'
p236
aS'/home/azureuser_michael/Data/Variant_Calling/SV_Results/workspace/chromDepth.txt.tmpdir/chromDepth.txt.000.txt.tmpdir/chromDepth.txt.000.txt_248_chrX_KI270880v1_alt'
p237
aS'/home/azureuser_michael/Data/Variant_Calling/SV_Results/workspace/chromDepth.txt.tmpdir/chromDepth.txt.000.txt.tmpdir/chromDepth.txt.000.txt_249_chrX_KI270881v1_alt'
p238
aS'/home/azureuser_michael/Data/Variant_Calling/SV_Results/workspace/chromDepth.txt.tmpdir/chromDepth.txt.000.txt.tmpdir/chromDepth.txt.000.txt_250_chr19_KI270882v1_alt'
p239
aS'/home/azureuser_michael/Data/Variant_Calling/SV_Results/workspace/chromDepth.txt.tmpdir/chromDepth.txt.000.txt.tmpdir/chromDepth.txt.000.txt_251_chr19_KI270883v1_alt'
p240
aS'/home/azureuser_michael/Data/Variant_Calling/SV_Results/workspace/chromDepth.txt.tmpdir/chromDepth.txt.000.txt.tmpdir/chromDepth.txt.000.txt_252_chr19_KI270884v1_alt'
p241
aS'/home/azureuser_michael/Data/Variant_Calling/SV_Results/workspace/chromDepth.txt.tmpdir/chromDepth.txt.000.txt.tmpdir/chromDepth.txt.000.txt_253_chr19_KI270885v1_alt'
p242
aS'/home/azureuser_michael/Data/Variant_Calling/SV_Results/workspace/chromDepth.txt.tmpdir/chromDepth.txt.000.txt.tmpdir/chromDepth.txt.000.txt_254_chr19_KI270886v1_alt'
p243
aS'/home/azureuser_michael/Data/Variant_Calling/SV_Results/workspace/chromDepth.txt.tmpdir/chromDepth.txt.000.txt.tmpdir/chromDepth.txt.000.txt_255_chr19_KI270887v1_alt'
p244
aS'/home/azureuser_michael/Data/Variant_Calling/SV_Results/workspace/chromDepth.txt.tmpdir/chromDepth.txt.000.txt.tmpdir/chromDepth.txt.000.txt_256_chr19_KI270888v1_alt'
p245
aS'/home/azureuser_michael/Data/Variant_Calling/SV_Results/workspace/chromDepth.txt.tmpdir/chromDepth.txt.000.txt.tmpdir/chromDepth.txt.000.txt_257_chr19_KI270889v1_alt'
p246
aS'/home/azureuser_michael/Data/Variant_Calling/SV_Results/workspace/chromDepth.txt.tmpdir/chromDepth.txt.000.txt.tmpdir/chromDepth.txt.000.txt_258_chr19_KI270890v1_alt'
p247
aS'/home/azureuser_michael/Data/Variant_Calling/SV_Results/workspace/chromDepth.txt.tmpdir/chromDepth.txt.000.txt.tmpdir/chromDepth.txt.000.txt_259_chr19_KI270891v1_alt'
p248
aS'/home/azureuser_michael/Data/Variant_Calling/SV_Results/workspace/chromDepth.txt.tmpdir/chromDepth.txt.000.txt.tmpdir/chromDepth.txt.000.txt_260_chr1_KI270892v1_alt'
p249
aS'/home/azureuser_michael/Data/Variant_Calling/SV_Results/workspace/chromDepth.txt.tmpdir/chromDepth.txt.000.txt.tmpdir/chromDepth.txt.000.txt_261_chr2_KI270894v1_alt'
p250
aS'/home/azureuser_michael/Data/Variant_Calling/SV_Results/workspace/chromDepth.txt.tmpdir/chromDepth.txt.000.txt.tmpdir/chromDepth.txt.000.txt_262_chr2_KI270893v1_alt'
p251
aS'/home/azureuser_michael/Data/Variant_Calling/SV_Results/workspace/chromDepth.txt.tmpdir/chromDepth.txt.000.txt.tmpdir/chromDepth.txt.000.txt_263_chr3_KI270895v1_alt'
p252
aS'/home/azureuser_michael/Data/Variant_Calling/SV_Results/workspace/chromDepth.txt.tmpdir/chromDepth.txt.000.txt.tmpdir/chromDepth.txt.000.txt_264_chr4_KI270896v1_alt'
p253
aS'/home/azureuser_michael/Data/Variant_Calling/SV_Results/workspace/chromDepth.txt.tmpdir/chromDepth.txt.000.txt.tmpdir/chromDepth.txt.000.txt_265_chr5_KI270897v1_alt'
p254
aS'/home/azureuser_michael/Data/Variant_Calling/SV_Results/workspace/chromDepth.txt.tmpdir/chromDepth.txt.000.txt.tmpdir/chromDepth.txt.000.txt_266_chr5_KI270898v1_alt'
p255
aS'/home/azureuser_michael/Data/Variant_Calling/SV_Results/workspace/chromDepth.txt.tmpdir/chromDepth.txt.000.txt.tmpdir/chromDepth.txt.000.txt_267_chr6_GL000251v2_alt'
p256
aS'/home/azureuser_michael/Data/Variant_Calling/SV_Results/workspace/chromDepth.txt.tmpdir/chromDepth.txt.000.txt.tmpdir/chromDepth.txt.000.txt_268_chr7_KI270899v1_alt'
p257
aS'/home/azureuser_michael/Data/Variant_Calling/SV_Results/workspace/chromDepth.txt.tmpdir/chromDepth.txt.000.txt.tmpdir/chromDepth.txt.000.txt_269_chr8_KI270901v1_alt'
p258
aS'/home/azureuser_michael/Data/Variant_Calling/SV_Results/workspace/chromDepth.txt.tmpdir/chromDepth.txt.000.txt.tmpdir/chromDepth.txt.000.txt_270_chr8_KI270900v1_alt'
p259
aS'/home/azureuser_michael/Data/Variant_Calling/SV_Results/workspace/chromDepth.txt.tmpdir/chromDepth.txt.000.txt.tmpdir/chromDepth.txt.000.txt_271_chr11_KI270902v1_alt'
p260
aS'/home/azureuser_michael/Data/Variant_Calling/SV_Results/workspace/chromDepth.txt.tmpdir/chromDepth.txt.000.txt.tmpdir/chromDepth.txt.000.txt_272_chr11_KI270903v1_alt'
p261
aS'/home/azureuser_michael/Data/Variant_Calling/SV_Results/workspace/chromDepth.txt.tmpdir/chromDepth.txt.000.txt.tmpdir/chromDepth.txt.000.txt_273_chr12_KI270904v1_alt'
p262
aS'/home/azureuser_michael/Data/Variant_Calling/SV_Results/workspace/chromDepth.txt.tmpdir/chromDepth.txt.000.txt.tmpdir/chromDepth.txt.000.txt_274_chr15_KI270906v1_alt'
p263
aS'/home/azureuser_michael/Data/Variant_Calling/SV_Results/workspace/chromDepth.txt.tmpdir/chromDepth.txt.000.txt.tmpdir/chromDepth.txt.000.txt_275_chr15_KI270905v1_alt'
p264
aS'/home/azureuser_michael/Data/Variant_Calling/SV_Results/workspace/chromDepth.txt.tmpdir/chromDepth.txt.000.txt.tmpdir/chromDepth.txt.000.txt_276_chr17_KI270907v1_alt'
p265
aS'/home/azureuser_michael/Data/Variant_Calling/SV_Results/workspace/chromDepth.txt.tmpdir/chromDepth.txt.000.txt.tmpdir/chromDepth.txt.000.txt_277_chr17_KI270910v1_alt'
p266
aS'/home/azureuser_michael/Data/Variant_Calling/SV_Results/workspace/chromDepth.txt.tmpdir/chromDepth.txt.000.txt.tmpdir/chromDepth.txt.000.txt_278_chr17_KI270909v1_alt'
p267
aS'/home/azureuser_michael/Data/Variant_Calling/SV_Results/workspace/chromDepth.txt.tmpdir/chromDepth.txt.000.txt.tmpdir/chromDepth.txt.000.txt_279_chr17_JH159148v1_alt'
p268
aS'/home/azureuser_michael/Data/Variant_Calling/SV_Results/workspace/chromDepth.txt.tmpdir/chromDepth.txt.000.txt.tmpdir/chromDepth.txt.000.txt_280_chr17_KI270908v1_alt'
p269
aS'/home/azureuser_michael/Data/Variant_Calling/SV_Results/workspace/chromDepth.txt.tmpdir/chromDepth.txt.000.txt.tmpdir/chromDepth.txt.000.txt_281_chr18_KI270912v1_alt'
p270
aS'/home/azureuser_michael/Data/Variant_Calling/SV_Results/workspace/chromDepth.txt.tmpdir/chromDepth.txt.000.txt.tmpdir/chromDepth.txt.000.txt_282_chr18_KI270911v1_alt'
p271
aS'/home/azureuser_michael/Data/Variant_Calling/SV_Results/workspace/chromDepth.txt.tmpdir/chromDepth.txt.000.txt.tmpdir/chromDepth.txt.000.txt_283_chr19_GL949747v2_alt'
p272
aS'/home/azureuser_michael/Data/Variant_Calling/SV_Results/workspace/chromDepth.txt.tmpdir/chromDepth.txt.000.txt.tmpdir/chromDepth.txt.000.txt_284_chr22_KB663609v1_alt'
p273
aS'/home/azureuser_michael/Data/Variant_Calling/SV_Results/workspace/chromDepth.txt.tmpdir/chromDepth.txt.000.txt.tmpdir/chromDepth.txt.000.txt_285_chrX_KI270913v1_alt'
p274
aS'/home/azureuser_michael/Data/Variant_Calling/SV_Results/workspace/chromDepth.txt.tmpdir/chromDepth.txt.000.txt.tmpdir/chromDepth.txt.000.txt_286_chr19_KI270914v1_alt'
p275
aS'/home/azureuser_michael/Data/Variant_Calling/SV_Results/workspace/chromDepth.txt.tmpdir/chromDepth.txt.000.txt.tmpdir/chromDepth.txt.000.txt_287_chr19_KI270915v1_alt'
p276
aS'/home/azureuser_michael/Data/Variant_Calling/SV_Results/workspace/chromDepth.txt.tmpdir/chromDepth.txt.000.txt.tmpdir/chromDepth.txt.000.txt_288_chr19_KI270916v1_alt'
p277
aS'/home/azureuser_michael/Data/Variant_Calling/SV_Results/workspace/chromDepth.txt.tmpdir/chromDepth.txt.000.txt.tmpdir/chromDepth.txt.000.txt_289_chr19_KI270917v1_alt'
p278
aS'/home/azureuser_michael/Data/Variant_Calling/SV_Results/workspace/chromDepth.txt.tmpdir/chromDepth.txt.000.txt.tmpdir/chromDepth.txt.000.txt_290_chr19_KI270918v1_alt'
p279
aS'/home/azureuser_michael/Data/Variant_Calling/SV_Results/workspace/chromDepth.txt.tmpdir/chromDepth.txt.000.txt.tmpdir/chromDepth.txt.000.txt_291_chr19_KI270919v1_alt'
p280
aS'/home/azureuser_michael/Data/Variant_Calling/SV_Results/workspace/chromDepth.txt.tmpdir/chromDepth.txt.000.txt.tmpdir/chromDepth.txt.000.txt_292_chr19_KI270920v1_alt'
p281
aS'/home/azureuser_michael/Data/Variant_Calling/SV_Results/workspace/chromDepth.txt.tmpdir/chromDepth.txt.000.txt.tmpdir/chromDepth.txt.000.txt_293_chr19_KI270921v1_alt'
p282
aS'/home/azureuser_michael/Data/Variant_Calling/SV_Results/workspace/chromDepth.txt.tmpdir/chromDepth.txt.000.txt.tmpdir/chromDepth.txt.000.txt_294_chr19_KI270922v1_alt'
p283
aS'/home/azureuser_michael/Data/Variant_Calling/SV_Results/workspace/chromDepth.txt.tmpdir/chromDepth.txt.000.txt.tmpdir/chromDepth.txt.000.txt_295_chr19_KI270923v1_alt'
p284
aS'/home/azureuser_michael/Data/Variant_Calling/SV_Results/workspace/chromDepth.txt.tmpdir/chromDepth.txt.000.txt.tmpdir/chromDepth.txt.000.txt_296_chr3_KI270924v1_alt'
p285
aS'/home/azureuser_michael/Data/Variant_Calling/SV_Results/workspace/chromDepth.txt.tmpdir/chromDepth.txt.000.txt.tmpdir/chromDepth.txt.000.txt_297_chr4_KI270925v1_alt'
p286
aS'/home/azureuser_michael/Data/Variant_Calling/SV_Results/workspace/chromDepth.txt.tmpdir/chromDepth.txt.000.txt.tmpdir/chromDepth.txt.000.txt_298_chr6_GL000252v2_alt'
p287
aS'/home/azureuser_michael/Data/Variant_Calling/SV_Results/workspace/chromDepth.txt.tmpdir/chromDepth.txt.000.txt.tmpdir/chromDepth.txt.000.txt_299_chr8_KI270926v1_alt'
p288
aS'/home/azureuser_michael/Data/Variant_Calling/SV_Results/workspace/chromDepth.txt.tmpdir/chromDepth.txt.000.txt.tmpdir/chromDepth.txt.000.txt_300_chr11_KI270927v1_alt'
p289
aS'/home/azureuser_michael/Data/Variant_Calling/SV_Results/workspace/chromDepth.txt.tmpdir/chromDepth.txt.000.txt.tmpdir/chromDepth.txt.000.txt_301_chr19_GL949748v2_alt'
p290
aS'/home/azureuser_michael/Data/Variant_Calling/SV_Results/workspace/chromDepth.txt.tmpdir/chromDepth.txt.000.txt.tmpdir/chromDepth.txt.000.txt_302_chr22_KI270928v1_alt'
p291
aS'/home/azureuser_michael/Data/Variant_Calling/SV_Results/workspace/chromDepth.txt.tmpdir/chromDepth.txt.000.txt.tmpdir/chromDepth.txt.000.txt_303_chr19_KI270929v1_alt'
p292
aS'/home/azureuser_michael/Data/Variant_Calling/SV_Results/workspace/chromDepth.txt.tmpdir/chromDepth.txt.000.txt.tmpdir/chromDepth.txt.000.txt_304_chr19_KI270930v1_alt'
p293
aS'/home/azureuser_michael/Data/Variant_Calling/SV_Results/workspace/chromDepth.txt.tmpdir/chromDepth.txt.000.txt.tmpdir/chromDepth.txt.000.txt_305_chr19_KI270931v1_alt'
p294
aS'/home/azureuser_michael/Data/Variant_Calling/SV_Results/workspace/chromDepth.txt.tmpdir/chromDepth.txt.000.txt.tmpdir/chromDepth.txt.000.txt_306_chr19_KI270932v1_alt'
p295
aS'/home/azureuser_michael/Data/Variant_Calling/SV_Results/workspace/chromDepth.txt.tmpdir/chromDepth.txt.000.txt.tmpdir/chromDepth.txt.000.txt_307_chr19_KI270933v1_alt'
p296
aS'/home/azureuser_michael/Data/Variant_Calling/SV_Results/workspace/chromDepth.txt.tmpdir/chromDepth.txt.000.txt.tmpdir/chromDepth.txt.000.txt_308_chr19_GL000209v2_alt'
p297
aS'/home/azureuser_michael/Data/Variant_Calling/SV_Results/workspace/chromDepth.txt.tmpdir/chromDepth.txt.000.txt.tmpdir/chromDepth.txt.000.txt_309_chr3_KI270934v1_alt'
p298
aS'/home/azureuser_michael/Data/Variant_Calling/SV_Results/workspace/chromDepth.txt.tmpdir/chromDepth.txt.000.txt.tmpdir/chromDepth.txt.000.txt_310_chr6_GL000253v2_alt'
p299
aS'/home/azureuser_michael/Data/Variant_Calling/SV_Results/workspace/chromDepth.txt.tmpdir/chromDepth.txt.000.txt.tmpdir/chromDepth.txt.000.txt_311_chr19_GL949749v2_alt'
p300
aS'/home/azureuser_michael/Data/Variant_Calling/SV_Results/workspace/chromDepth.txt.tmpdir/chromDepth.txt.000.txt.tmpdir/chromDepth.txt.000.txt_312_chr3_KI270935v1_alt'
p301
aS'/home/azureuser_michael/Data/Variant_Calling/SV_Results/workspace/chromDepth.txt.tmpdir/chromDepth.txt.000.txt.tmpdir/chromDepth.txt.000.txt_313_chr6_GL000254v2_alt'
p302
aS'/home/azureuser_michael/Data/Variant_Calling/SV_Results/workspace/chromDepth.txt.tmpdir/chromDepth.txt.000.txt.tmpdir/chromDepth.txt.000.txt_314_chr19_GL949750v2_alt'
p303
aS'/home/azureuser_michael/Data/Variant_Calling/SV_Results/workspace/chromDepth.txt.tmpdir/chromDepth.txt.000.txt.tmpdir/chromDepth.txt.000.txt_315_chr3_KI270936v1_alt'
p304
aS'/home/azureuser_michael/Data/Variant_Calling/SV_Results/workspace/chromDepth.txt.tmpdir/chromDepth.txt.000.txt.tmpdir/chromDepth.txt.000.txt_316_chr6_GL000255v2_alt'
p305
aS'/home/azureuser_michael/Data/Variant_Calling/SV_Results/workspace/chromDepth.txt.tmpdir/chromDepth.txt.000.txt.tmpdir/chromDepth.txt.000.txt_317_chr19_GL949751v2_alt'
p306
aS'/home/azureuser_michael/Data/Variant_Calling/SV_Results/workspace/chromDepth.txt.tmpdir/chromDepth.txt.000.txt.tmpdir/chromDepth.txt.000.txt_318_chr3_KI270937v1_alt'
p307
aS'/home/azureuser_michael/Data/Variant_Calling/SV_Results/workspace/chromDepth.txt.tmpdir/chromDepth.txt.000.txt.tmpdir/chromDepth.txt.000.txt_319_chr6_GL000256v2_alt'
p308
aS'/home/azureuser_michael/Data/Variant_Calling/SV_Results/workspace/chromDepth.txt.tmpdir/chromDepth.txt.000.txt.tmpdir/chromDepth.txt.000.txt_320_chr19_GL949752v1_alt'
p309
aS'/home/azureuser_michael/Data/Variant_Calling/SV_Results/workspace/chromDepth.txt.tmpdir/chromDepth.txt.000.txt.tmpdir/chromDepth.txt.000.txt_321_chr6_KI270758v1_alt'
p310
aS'/home/azureuser_michael/Data/Variant_Calling/SV_Results/workspace/chromDepth.txt.tmpdir/chromDepth.txt.000.txt.tmpdir/chromDepth.txt.000.txt_322_chr19_GL949753v2_alt'
p311
aS'/home/azureuser_michael/Data/Variant_Calling/SV_Results/workspace/chromDepth.txt.tmpdir/chromDepth.txt.000.txt.tmpdir/chromDepth.txt.000.txt_323_chr19_KI270938v1_alt'
p312
aS'/home/azureuser_michael/Data/Variant_Calling/SV_Results/workspace/chromDepth.txt.tmpdir/chromDepth.txt.000.txt.tmpdir/chromDepth.txt.000.txt_324_chrM_to_348_chrUn_KI270429v1'
p313
aS'/home/azureuser_michael/Data/Variant_Calling/SV_Results/workspace/chromDepth.txt.tmpdir/chromDepth.txt.000.txt.tmpdir/chromDepth.txt.000.txt_349_chrUn_KI270442v1'
p314
aS'/home/azureuser_michael/Data/Variant_Calling/SV_Results/workspace/chromDepth.txt.tmpdir/chromDepth.txt.000.txt.tmpdir/chromDepth.txt.000.txt_350_chrUn_KI270466v1_to_353_chrUn_KI270435v1'
p315
aS'/home/azureuser_michael/Data/Variant_Calling/SV_Results/workspace/chromDepth.txt.tmpdir/chromDepth.txt.000.txt.tmpdir/chromDepth.txt.000.txt_354_chrUn_KI270438v1_to_361_chrUn_KI270512v1'
p316
aS'/home/azureuser_michael/Data/Variant_Calling/SV_Results/workspace/chromDepth.txt.tmpdir/chromDepth.txt.000.txt.tmpdir/chromDepth.txt.000.txt_362_chrUn_KI270519v1_to_371_chrUn_KI270539v1'
p317
aS'/home/azureuser_michael/Data/Variant_Calling/SV_Results/workspace/chromDepth.txt.tmpdir/chromDepth.txt.000.txt.tmpdir/chromDepth.txt.000.txt_372_chrUn_KI270538v1_to_383_chrUn_KI270582v1'
p318
aS'/home/azureuser_michael/Data/Variant_Calling/SV_Results/workspace/chromDepth.txt.tmpdir/chromDepth.txt.000.txt.tmpdir/chromDepth.txt.000.txt_384_chrUn_KI270588v1_to_425_chrUn_KI270521v1'
p319
aS'/home/azureuser_michael/Data/Variant_Calling/SV_Results/workspace/chromDepth.txt.tmpdir/chromDepth.txt.000.txt.tmpdir/chromDepth.txt.000.txt_426_chrUn_GL000195v1'
p320
aS'/home/azureuser_michael/Data/Variant_Calling/SV_Results/workspace/chromDepth.txt.tmpdir/chromDepth.txt.000.txt.tmpdir/chromDepth.txt.000.txt_427_chrUn_GL000219v1'
p321
aS'/home/azureuser_michael/Data/Variant_Calling/SV_Results/workspace/chromDepth.txt.tmpdir/chromDepth.txt.000.txt.tmpdir/chromDepth.txt.000.txt_428_chrUn_GL000220v1'
p322
aS'/home/azureuser_michael/Data/Variant_Calling/SV_Results/workspace/chromDepth.txt.tmpdir/chromDepth.txt.000.txt.tmpdir/chromDepth.txt.000.txt_429_chrUn_GL000224v1'
p323
aS'/home/azureuser_michael/Data/Variant_Calling/SV_Results/workspace/chromDepth.txt.tmpdir/chromDepth.txt.000.txt.tmpdir/chromDepth.txt.000.txt_430_chrUn_KI270741v1_to_431_chrUn_GL000226v1'
p324
aS'/home/azureuser_michael/Data/Variant_Calling/SV_Results/workspace/chromDepth.txt.tmpdir/chromDepth.txt.000.txt.tmpdir/chromDepth.txt.000.txt_432_chrUn_GL000213v1'
p325
aS'/home/azureuser_michael/Data/Variant_Calling/SV_Results/workspace/chromDepth.txt.tmpdir/chromDepth.txt.000.txt.tmpdir/chromDepth.txt.000.txt_433_chrUn_KI270743v1'
p326
aS'/home/azureuser_michael/Data/Variant_Calling/SV_Results/workspace/chromDepth.txt.tmpdir/chromDepth.txt.000.txt.tmpdir/chromDepth.txt.000.txt_434_chrUn_KI270744v1'
p327
aS'/home/azureuser_michael/Data/Variant_Calling/SV_Results/workspace/chromDepth.txt.tmpdir/chromDepth.txt.000.txt.tmpdir/chromDepth.txt.000.txt_435_chrUn_KI270745v1_to_436_chrUn_KI270746v1'
p328
aS'/home/azureuser_michael/Data/Variant_Calling/SV_Results/workspace/chromDepth.txt.tmpdir/chromDepth.txt.000.txt.tmpdir/chromDepth.txt.000.txt_437_chrUn_KI270747v1'
p329
aS'/home/azureuser_michael/Data/Variant_Calling/SV_Results/workspace/chromDepth.txt.tmpdir/chromDepth.txt.000.txt.tmpdir/chromDepth.txt.000.txt_438_chrUn_KI270748v1'
p330
aS'/home/azureuser_michael/Data/Variant_Calling/SV_Results/workspace/chromDepth.txt.tmpdir/chromDepth.txt.000.txt.tmpdir/chromDepth.txt.000.txt_439_chrUn_KI270749v1'
p331
aS'/home/azureuser_michael/Data/Variant_Calling/SV_Results/workspace/chromDepth.txt.tmpdir/chromDepth.txt.000.txt.tmpdir/chromDepth.txt.000.txt_440_chrUn_KI270750v1'
p332
aS'/home/azureuser_michael/Data/Variant_Calling/SV_Results/workspace/chromDepth.txt.tmpdir/chromDepth.txt.000.txt.tmpdir/chromDepth.txt.000.txt_441_chrUn_KI270751v1_to_442_chrUn_KI270752v1'
p333
aS'/home/azureuser_michael/Data/Variant_Calling/SV_Results/workspace/chromDepth.txt.tmpdir/chromDepth.txt.000.txt.tmpdir/chromDepth.txt.000.txt_443_chrUn_KI270753v1_to_445_chrUn_KI270755v1'
p334
aS'/home/azureuser_michael/Data/Variant_Calling/SV_Results/workspace/chromDepth.txt.tmpdir/chromDepth.txt.000.txt.tmpdir/chromDepth.txt.000.txt_446_chrUn_KI270756v1_to_447_chrUn_KI270757v1'
p335
aS'/home/azureuser_michael/Data/Variant_Calling/SV_Results/workspace/chromDepth.txt.tmpdir/chromDepth.txt.000.txt.tmpdir/chromDepth.txt.000.txt_448_chrUn_GL000214v1'
p336
aS'/home/azureuser_michael/Data/Variant_Calling/SV_Results/workspace/chromDepth.txt.tmpdir/chromDepth.txt.000.txt.tmpdir/chromDepth.txt.000.txt_449_chrUn_KI270742v1'
p337
aS'/home/azureuser_michael/Data/Variant_Calling/SV_Results/workspace/chromDepth.txt.tmpdir/chromDepth.txt.000.txt.tmpdir/chromDepth.txt.000.txt_450_chrUn_GL000216v2'
p338
aS'/home/azureuser_michael/Data/Variant_Calling/SV_Results/workspace/chromDepth.txt.tmpdir/chromDepth.txt.000.txt.tmpdir/chromDepth.txt.000.txt_451_chrUn_GL000218v1'
p339
aS'/home/azureuser_michael/Data/Variant_Calling/SV_Results/workspace/chromDepth.txt.tmpdir/chromDepth.txt.000.txt.tmpdir/chromDepth.txt.000.txt_452_chrX'
p340
aS'/home/azureuser_michael/Data/Variant_Calling/SV_Results/workspace/chromDepth.txt.tmpdir/chromDepth.txt.000.txt.tmpdir/chromDepth.txt.000.txt_453_chrY'
p341
aS'/home/azureuser_michael/Data/Variant_Calling/SV_Results/workspace/chromDepth.txt.tmpdir/chromDepth.txt.000.txt.tmpdir/chromDepth.txt.000.txt_454_chrY_KI270740v1_random'
p342
aS'/home/azureuser_michael/Data/Variant_Calling/SV_Results/workspace/chromDepth.txt.tmpdir/chromDepth.txt.000.txt.tmpdir/chromDepth.txt.000.txt_455_chr1_KQ031383v1_fix'
p343
aS'/home/azureuser_michael/Data/Variant_Calling/SV_Results/workspace/chromDepth.txt.tmpdir/chromDepth.txt.000.txt.tmpdir/chromDepth.txt.000.txt_456_chr1_KQ983255v1_alt'
p344
aS'/home/azureuser_michael/Data/Variant_Calling/SV_Results/workspace/chromDepth.txt.tmpdir/chromDepth.txt.000.txt.tmpdir/chromDepth.txt.000.txt_457_chr1_KN538361v1_fix'
p345
aS'/home/azureuser_michael/Data/Variant_Calling/SV_Results/workspace/chromDepth.txt.tmpdir/chromDepth.txt.000.txt.tmpdir/chromDepth.txt.000.txt_458_chr1_KQ458383v1_alt'
p346
aS'/home/azureuser_michael/Data/Variant_Calling/SV_Results/workspace/chromDepth.txt.tmpdir/chromDepth.txt.000.txt.tmpdir/chromDepth.txt.000.txt_459_chr1_KN196473v1_fix'
p347
aS'/home/azureuser_michael/Data/Variant_Calling/SV_Results/workspace/chromDepth.txt.tmpdir/chromDepth.txt.000.txt.tmpdir/chromDepth.txt.000.txt_460_chr1_KZ208904v1_alt'
p348
aS'/home/azureuser_michael/Data/Variant_Calling/SV_Results/workspace/chromDepth.txt.tmpdir/chromDepth.txt.000.txt.tmpdir/chromDepth.txt.000.txt_461_chr1_KN196472v1_fix'
p349
aS'/home/azureuser_michael/Data/Variant_Calling/SV_Results/workspace/chromDepth.txt.tmpdir/chromDepth.txt.000.txt.tmpdir/chromDepth.txt.000.txt_462_chr1_KZ208905v1_alt'
p350
aS'/home/azureuser_michael/Data/Variant_Calling/SV_Results/workspace/chromDepth.txt.tmpdir/chromDepth.txt.000.txt.tmpdir/chromDepth.txt.000.txt_463_chr1_KQ458382v1_alt'
p351
aS'/home/azureuser_michael/Data/Variant_Calling/SV_Results/workspace/chromDepth.txt.tmpdir/chromDepth.txt.000.txt.tmpdir/chromDepth.txt.000.txt_464_chr1_KV880763v1_alt'
p352
aS'/home/azureuser_michael/Data/Variant_Calling/SV_Results/workspace/chromDepth.txt.tmpdir/chromDepth.txt.000.txt.tmpdir/chromDepth.txt.000.txt_465_chr1_KN196474v1_fix'
p353
aS'/home/azureuser_michael/Data/Variant_Calling/SV_Results/workspace/chromDepth.txt.tmpdir/chromDepth.txt.000.txt.tmpdir/chromDepth.txt.000.txt_466_chr1_KN538360v1_fix'
p354
aS'/home/azureuser_michael/Data/Variant_Calling/SV_Results/workspace/chromDepth.txt.tmpdir/chromDepth.txt.000.txt.tmpdir/chromDepth.txt.000.txt_467_chr1_KZ208906v1_fix'
p355
aS'/home/azureuser_michael/Data/Variant_Calling/SV_Results/workspace/chromDepth.txt.tmpdir/chromDepth.txt.000.txt.tmpdir/chromDepth.txt.000.txt_468_chr1_KQ458384v1_alt'
p356
aS'/home/azureuser_michael/Data/Variant_Calling/SV_Results/workspace/chromDepth.txt.tmpdir/chromDepth.txt.000.txt.tmpdir/chromDepth.txt.000.txt_469_chr2_KQ031384v1_fix'
p357
aS'/home/azureuser_michael/Data/Variant_Calling/SV_Results/workspace/chromDepth.txt.tmpdir/chromDepth.txt.000.txt.tmpdir/chromDepth.txt.000.txt_470_chr2_KZ208907v1_alt'
p358
aS'/home/azureuser_michael/Data/Variant_Calling/SV_Results/workspace/chromDepth.txt.tmpdir/chromDepth.txt.000.txt.tmpdir/chromDepth.txt.000.txt_471_chr2_KQ983256v1_alt'
p359
aS'/home/azureuser_michael/Data/Variant_Calling/SV_Results/workspace/chromDepth.txt.tmpdir/chromDepth.txt.000.txt.tmpdir/chromDepth.txt.000.txt_472_chr2_KZ208908v1_alt'
p360
aS'/home/azureuser_michael/Data/Variant_Calling/SV_Results/workspace/chromDepth.txt.tmpdir/chromDepth.txt.000.txt.tmpdir/chromDepth.txt.000.txt_473_chr2_KN538363v1_fix'
p361
aS'/home/azureuser_michael/Data/Variant_Calling/SV_Results/workspace/chromDepth.txt.tmpdir/chromDepth.txt.000.txt.tmpdir/chromDepth.txt.000.txt_474_chr2_KN538362v1_fix'
p362
aS'/home/azureuser_michael/Data/Variant_Calling/SV_Results/workspace/chromDepth.txt.tmpdir/chromDepth.txt.000.txt.tmpdir/chromDepth.txt.000.txt_475_chr3_KV766192v1_fix'
p363
aS'/home/azureuser_michael/Data/Variant_Calling/SV_Results/workspace/chromDepth.txt.tmpdir/chromDepth.txt.000.txt.tmpdir/chromDepth.txt.000.txt_476_chr3_KN196475v1_fix'
p364
aS'/home/azureuser_michael/Data/Variant_Calling/SV_Results/workspace/chromDepth.txt.tmpdir/chromDepth.txt.000.txt.tmpdir/chromDepth.txt.000.txt_477_chr3_KQ031385v1_fix'
p365
aS'/home/azureuser_michael/Data/Variant_Calling/SV_Results/workspace/chromDepth.txt.tmpdir/chromDepth.txt.000.txt.tmpdir/chromDepth.txt.000.txt_478_chr3_KN538364v1_fix'
p366
aS'/home/azureuser_michael/Data/Variant_Calling/SV_Results/workspace/chromDepth.txt.tmpdir/chromDepth.txt.000.txt.tmpdir/chromDepth.txt.000.txt_479_chr3_KZ208909v1_alt'
p367
aS'/home/azureuser_michael/Data/Variant_Calling/SV_Results/workspace/chromDepth.txt.tmpdir/chromDepth.txt.000.txt.tmpdir/chromDepth.txt.000.txt_480_chr3_KQ031386v1_fix'
p368
aS'/home/azureuser_michael/Data/Variant_Calling/SV_Results/workspace/chromDepth.txt.tmpdir/chromDepth.txt.000.txt.tmpdir/chromDepth.txt.000.txt_481_chr3_KN196476v1_fix'
p369
aS'/home/azureuser_michael/Data/Variant_Calling/SV_Results/workspace/chromDepth.txt.tmpdir/chromDepth.txt.000.txt.tmpdir/chromDepth.txt.000.txt_482_chr4_KQ090013v1_alt'
p370
aS'/home/azureuser_michael/Data/Variant_Calling/SV_Results/workspace/chromDepth.txt.tmpdir/chromDepth.txt.000.txt.tmpdir/chromDepth.txt.000.txt_483_chr4_KQ090014v1_alt'
p371
aS'/home/azureuser_michael/Data/Variant_Calling/SV_Results/workspace/chromDepth.txt.tmpdir/chromDepth.txt.000.txt.tmpdir/chromDepth.txt.000.txt_484_chr4_KQ090015v1_alt'
p372
aS'/home/azureuser_michael/Data/Variant_Calling/SV_Results/workspace/chromDepth.txt.tmpdir/chromDepth.txt.000.txt.tmpdir/chromDepth.txt.000.txt_485_chr4_KV766193v1_alt'
p373
aS'/home/azureuser_michael/Data/Variant_Calling/SV_Results/workspace/chromDepth.txt.tmpdir/chromDepth.txt.000.txt.tmpdir/chromDepth.txt.000.txt_486_chr4_KQ983257v1_fix'
p374
aS'/home/azureuser_michael/Data/Variant_Calling/SV_Results/workspace/chromDepth.txt.tmpdir/chromDepth.txt.000.txt.tmpdir/chromDepth.txt.000.txt_487_chr4_KQ983258v1_alt'
p375
aS'/home/azureuser_michael/Data/Variant_Calling/SV_Results/workspace/chromDepth.txt.tmpdir/chromDepth.txt.000.txt.tmpdir/chromDepth.txt.000.txt_488_chr5_KZ208910v1_alt'
p376
aS'/home/azureuser_michael/Data/Variant_Calling/SV_Results/workspace/chromDepth.txt.tmpdir/chromDepth.txt.000.txt.tmpdir/chromDepth.txt.000.txt_489_chr5_KN196477v1_alt'
p377
aS'/home/azureuser_michael/Data/Variant_Calling/SV_Results/workspace/chromDepth.txt.tmpdir/chromDepth.txt.000.txt.tmpdir/chromDepth.txt.000.txt_490_chr5_KV575243v1_alt'
p378
aS'/home/azureuser_michael/Data/Variant_Calling/SV_Results/workspace/chromDepth.txt.tmpdir/chromDepth.txt.000.txt.tmpdir/chromDepth.txt.000.txt_491_chr5_KV575244v1_fix'
p379
aS'/home/azureuser_michael/Data/Variant_Calling/SV_Results/workspace/chromDepth.txt.tmpdir/chromDepth.txt.000.txt.tmpdir/chromDepth.txt.000.txt_492_chr6_KZ208911v1_fix'
p380
aS'/home/azureuser_michael/Data/Variant_Calling/SV_Results/workspace/chromDepth.txt.tmpdir/chromDepth.txt.000.txt.tmpdir/chromDepth.txt.000.txt_493_chr6_KQ090017v1_alt'
p381
aS'/home/azureuser_michael/Data/Variant_Calling/SV_Results/workspace/chromDepth.txt.tmpdir/chromDepth.txt.000.txt.tmpdir/chromDepth.txt.000.txt_494_chr6_KQ031387v1_fix'
p382
aS'/home/azureuser_michael/Data/Variant_Calling/SV_Results/workspace/chromDepth.txt.tmpdir/chromDepth.txt.000.txt.tmpdir/chromDepth.txt.000.txt_495_chr6_KN196478v1_fix'
p383
aS'/home/azureuser_michael/Data/Variant_Calling/SV_Results/workspace/chromDepth.txt.tmpdir/chromDepth.txt.000.txt.tmpdir/chromDepth.txt.000.txt_496_chr6_KQ090016v1_fix'
p384
aS'/home/azureuser_michael/Data/Variant_Calling/SV_Results/workspace/chromDepth.txt.tmpdir/chromDepth.txt.000.txt.tmpdir/chromDepth.txt.000.txt_497_chr6_KV766194v1_fix'
p385
aS'/home/azureuser_michael/Data/Variant_Calling/SV_Results/workspace/chromDepth.txt.tmpdir/chromDepth.txt.000.txt.tmpdir/chromDepth.txt.000.txt_498_chr7_KV880764v1_fix'
p386
aS'/home/azureuser_michael/Data/Variant_Calling/SV_Results/workspace/chromDepth.txt.tmpdir/chromDepth.txt.000.txt.tmpdir/chromDepth.txt.000.txt_499_chr7_KV880765v1_fix'
p387
aS'/home/azureuser_michael/Data/Variant_Calling/SV_Results/workspace/chromDepth.txt.tmpdir/chromDepth.txt.000.txt.tmpdir/chromDepth.txt.000.txt_500_chr7_KZ208912v1_fix'
p388
aS'/home/azureuser_michael/Data/Variant_Calling/SV_Results/workspace/chromDepth.txt.tmpdir/chromDepth.txt.000.txt.tmpdir/chromDepth.txt.000.txt_501_chr7_KZ208913v1_alt'
p389
aS'/home/azureuser_michael/Data/Variant_Calling/SV_Results/workspace/chromDepth.txt.tmpdir/chromDepth.txt.000.txt.tmpdir/chromDepth.txt.000.txt_502_chr7_KQ031388v1_fix'
p390
aS'/home/azureuser_michael/Data/Variant_Calling/SV_Results/workspace/chromDepth.txt.tmpdir/chromDepth.txt.000.txt.tmpdir/chromDepth.txt.000.txt_503_chr8_KZ208915v1_fix'
p391
aS'/home/azureuser_michael/Data/Variant_Calling/SV_Results/workspace/chromDepth.txt.tmpdir/chromDepth.txt.000.txt.tmpdir/chromDepth.txt.000.txt_504_chr8_KV880767v1_fix'
p392
aS'/home/azureuser_michael/Data/Variant_Calling/SV_Results/workspace/chromDepth.txt.tmpdir/chromDepth.txt.000.txt.tmpdir/chromDepth.txt.000.txt_505_chr8_KV880766v1_fix'
p393
aS'/home/azureuser_michael/Data/Variant_Calling/SV_Results/workspace/chromDepth.txt.tmpdir/chromDepth.txt.000.txt.tmpdir/chromDepth.txt.000.txt_506_chr8_KZ208914v1_fix'
p394
aS'/home/azureuser_michael/Data/Variant_Calling/SV_Results/workspace/chromDepth.txt.tmpdir/chromDepth.txt.000.txt.tmpdir/chromDepth.txt.000.txt_507_chr9_KQ090018v1_alt'
p395
aS'/home/azureuser_michael/Data/Variant_Calling/SV_Results/workspace/chromDepth.txt.tmpdir/chromDepth.txt.000.txt.tmpdir/chromDepth.txt.000.txt_508_chr9_KQ090019v1_alt'
p396
aS'/home/azureuser_michael/Data/Variant_Calling/SV_Results/workspace/chromDepth.txt.tmpdir/chromDepth.txt.000.txt.tmpdir/chromDepth.txt.000.txt_509_chr9_KN196479v1_fix'
p397
aS'/home/azureuser_michael/Data/Variant_Calling/SV_Results/workspace/chromDepth.txt.tmpdir/chromDepth.txt.000.txt.tmpdir/chromDepth.txt.000.txt_510_chr10_KN538367v1_fix'
p398
aS'/home/azureuser_michael/Data/Variant_Calling/SV_Results/workspace/chromDepth.txt.tmpdir/chromDepth.txt.000.txt.tmpdir/chromDepth.txt.000.txt_511_chr10_KQ090020v1_alt'
p399
aS'/home/azureuser_michael/Data/Variant_Calling/SV_Results/workspace/chromDepth.txt.tmpdir/chromDepth.txt.000.txt.tmpdir/chromDepth.txt.000.txt_512_chr10_KN196480v1_fix'
p400
aS'/home/azureuser_michael/Data/Variant_Calling/SV_Results/workspace/chromDepth.txt.tmpdir/chromDepth.txt.000.txt.tmpdir/chromDepth.txt.000.txt_513_chr10_KQ090021v1_fix'
p401
aS'/home/azureuser_michael/Data/Variant_Calling/SV_Results/workspace/chromDepth.txt.tmpdir/chromDepth.txt.000.txt.tmpdir/chromDepth.txt.000.txt_514_chr10_KN538366v1_fix_to_515_chr10_KN538365v1_fix'
p402
aS'/home/azureuser_michael/Data/Variant_Calling/SV_Results/workspace/chromDepth.txt.tmpdir/chromDepth.txt.000.txt.tmpdir/chromDepth.txt.000.txt_516_chr11_KQ759759v1_fix'
p403
aS'/home/azureuser_michael/Data/Variant_Calling/SV_Results/workspace/chromDepth.txt.tmpdir/chromDepth.txt.000.txt.tmpdir/chromDepth.txt.000.txt_517_chr11_KN538368v1_alt'
p404
aS'/home/azureuser_michael/Data/Variant_Calling/SV_Results/workspace/chromDepth.txt.tmpdir/chromDepth.txt.000.txt.tmpdir/chromDepth.txt.000.txt_518_chr11_KV766195v1_fix'
p405
aS'/home/azureuser_michael/Data/Variant_Calling/SV_Results/workspace/chromDepth.txt.tmpdir/chromDepth.txt.000.txt.tmpdir/chromDepth.txt.000.txt_519_chr11_KQ090022v1_fix'
p406
aS'/home/azureuser_michael/Data/Variant_Calling/SV_Results/workspace/chromDepth.txt.tmpdir/chromDepth.txt.000.txt.tmpdir/chromDepth.txt.000.txt_520_chr11_KN196481v1_fix'
p407
aS'/home/azureuser_michael/Data/Variant_Calling/SV_Results/workspace/chromDepth.txt.tmpdir/chromDepth.txt.000.txt.tmpdir/chromDepth.txt.000.txt_521_chr12_KQ090023v1_alt'
p408
aS'/home/azureuser_michael/Data/Variant_Calling/SV_Results/workspace/chromDepth.txt.tmpdir/chromDepth.txt.000.txt.tmpdir/chromDepth.txt.000.txt_522_chr12_KZ208916v1_fix'
p409
aS'/home/azureuser_michael/Data/Variant_Calling/SV_Results/workspace/chromDepth.txt.tmpdir/chromDepth.txt.000.txt.tmpdir/chromDepth.txt.000.txt_523_chr12_KN538369v1_fix'
p410
aS'/home/azureuser_michael/Data/Variant_Calling/SV_Results/workspace/chromDepth.txt.tmpdir/chromDepth.txt.000.txt.tmpdir/chromDepth.txt.000.txt_524_chr12_KN196482v1_fix'
p411
aS'/home/azureuser_michael/Data/Variant_Calling/SV_Results/workspace/chromDepth.txt.tmpdir/chromDepth.txt.000.txt.tmpdir/chromDepth.txt.000.txt_525_chr12_KZ208918v1_alt'
p412
aS'/home/azureuser_michael/Data/Variant_Calling/SV_Results/workspace/chromDepth.txt.tmpdir/chromDepth.txt.000.txt.tmpdir/chromDepth.txt.000.txt_526_chr12_KQ759760v1_fix'
p413
aS'/home/azureuser_michael/Data/Variant_Calling/SV_Results/workspace/chromDepth.txt.tmpdir/chromDepth.txt.000.txt.tmpdir/chromDepth.txt.000.txt_527_chr12_KZ208917v1_fix_to_528_chr12_KN538370v1_fix'
p414
aS'/home/azureuser_michael/Data/Variant_Calling/SV_Results/workspace/chromDepth.txt.tmpdir/chromDepth.txt.000.txt.tmpdir/chromDepth.txt.000.txt_529_chr13_KN538372v1_fix'
p415
aS'/home/azureuser_michael/Data/Variant_Calling/SV_Results/workspace/chromDepth.txt.tmpdir/chromDepth.txt.000.txt.tmpdir/chromDepth.txt.000.txt_530_chr13_KQ090024v1_alt'
p416
aS'/home/azureuser_michael/Data/Variant_Calling/SV_Results/workspace/chromDepth.txt.tmpdir/chromDepth.txt.000.txt.tmpdir/chromDepth.txt.000.txt_531_chr13_KN196483v1_fix_to_532_chr13_KN538373v1_fix'
p417
aS'/home/azureuser_michael/Data/Variant_Calling/SV_Results/workspace/chromDepth.txt.tmpdir/chromDepth.txt.000.txt.tmpdir/chromDepth.txt.000.txt_533_chr13_KQ090025v1_alt'
p418
aS'/home/azureuser_michael/Data/Variant_Calling/SV_Results/workspace/chromDepth.txt.tmpdir/chromDepth.txt.000.txt.tmpdir/chromDepth.txt.000.txt_534_chr13_KN538371v1_fix'
p419
aS'/home/azureuser_michael/Data/Variant_Calling/SV_Results/workspace/chromDepth.txt.tmpdir/chromDepth.txt.000.txt.tmpdir/chromDepth.txt.000.txt_535_chr14_KZ208920v1_fix'
p420
aS'/home/azureuser_michael/Data/Variant_Calling/SV_Results/workspace/chromDepth.txt.tmpdir/chromDepth.txt.000.txt.tmpdir/chromDepth.txt.000.txt_536_chr14_KZ208919v1_alt'
p421
aS'/home/azureuser_michael/Data/Variant_Calling/SV_Results/workspace/chromDepth.txt.tmpdir/chromDepth.txt.000.txt.tmpdir/chromDepth.txt.000.txt_537_chr15_KN538374v1_fix'
p422
aS'/home/azureuser_michael/Data/Variant_Calling/SV_Results/workspace/chromDepth.txt.tmpdir/chromDepth.txt.000.txt.tmpdir/chromDepth.txt.000.txt_538_chr15_KQ031389v1_alt'
p423
aS'/home/azureuser_michael/Data/Variant_Calling/SV_Results/workspace/chromDepth.txt.tmpdir/chromDepth.txt.000.txt.tmpdir/chromDepth.txt.000.txt_539_chr16_KQ090026v1_alt'
p424
aS'/home/azureuser_michael/Data/Variant_Calling/SV_Results/workspace/chromDepth.txt.tmpdir/chromDepth.txt.000.txt.tmpdir/chromDepth.txt.000.txt_540_chr16_KV880768v1_fix'
p425
aS'/home/azureuser_michael/Data/Variant_Calling/SV_Results/workspace/chromDepth.txt.tmpdir/chromDepth.txt.000.txt.tmpdir/chromDepth.txt.000.txt_541_chr16_KQ090027v1_alt'
p426
aS'/home/azureuser_michael/Data/Variant_Calling/SV_Results/workspace/chromDepth.txt.tmpdir/chromDepth.txt.000.txt.tmpdir/chromDepth.txt.000.txt_542_chr16_KZ208921v1_alt'
p427
aS'/home/azureuser_michael/Data/Variant_Calling/SV_Results/workspace/chromDepth.txt.tmpdir/chromDepth.txt.000.txt.tmpdir/chromDepth.txt.000.txt_543_chr16_KQ031390v1_alt'
p428
aS'/home/azureuser_michael/Data/Variant_Calling/SV_Results/workspace/chromDepth.txt.tmpdir/chromDepth.txt.000.txt.tmpdir/chromDepth.txt.000.txt_544_chr17_KV766196v1_fix'
p429
aS'/home/azureuser_michael/Data/Variant_Calling/SV_Results/workspace/chromDepth.txt.tmpdir/chromDepth.txt.000.txt.tmpdir/chromDepth.txt.000.txt_545_chr17_KV575245v1_fix'
p430
aS'/home/azureuser_michael/Data/Variant_Calling/SV_Results/workspace/chromDepth.txt.tmpdir/chromDepth.txt.000.txt.tmpdir/chromDepth.txt.000.txt_546_chr17_KV766198v1_alt'
p431
aS'/home/azureuser_michael/Data/Variant_Calling/SV_Results/workspace/chromDepth.txt.tmpdir/chromDepth.txt.000.txt.tmpdir/chromDepth.txt.000.txt_547_chr17_KV766197v1_alt'
p432
aS'/home/azureuser_michael/Data/Variant_Calling/SV_Results/workspace/chromDepth.txt.tmpdir/chromDepth.txt.000.txt.tmpdir/chromDepth.txt.000.txt_548_chr18_KQ458385v1_alt'
p433
aS'/home/azureuser_michael/Data/Variant_Calling/SV_Results/workspace/chromDepth.txt.tmpdir/chromDepth.txt.000.txt.tmpdir/chromDepth.txt.000.txt_549_chr18_KQ090028v1_fix'
p434
aS'/home/azureuser_michael/Data/Variant_Calling/SV_Results/workspace/chromDepth.txt.tmpdir/chromDepth.txt.000.txt.tmpdir/chromDepth.txt.000.txt_550_chr18_KZ208922v1_fix'
p435
aS'/home/azureuser_michael/Data/Variant_Calling/SV_Results/workspace/chromDepth.txt.tmpdir/chromDepth.txt.000.txt.tmpdir/chromDepth.txt.000.txt_551_chr19_KQ458386v1_fix'
p436
aS'/home/azureuser_michael/Data/Variant_Calling/SV_Results/workspace/chromDepth.txt.tmpdir/chromDepth.txt.000.txt.tmpdir/chromDepth.txt.000.txt_552_chr19_KN196484v1_fix'
p437
aS'/home/azureuser_michael/Data/Variant_Calling/SV_Results/workspace/chromDepth.txt.tmpdir/chromDepth.txt.000.txt.tmpdir/chromDepth.txt.000.txt_553_chr19_KV575246v1_alt'
p438
aS'/home/azureuser_michael/Data/Variant_Calling/SV_Results/workspace/chromDepth.txt.tmpdir/chromDepth.txt.000.txt.tmpdir/chromDepth.txt.000.txt_554_chr19_KV575247v1_alt'
p439
aS'/home/azureuser_michael/Data/Variant_Calling/SV_Results/workspace/chromDepth.txt.tmpdir/chromDepth.txt.000.txt.tmpdir/chromDepth.txt.000.txt_555_chr19_KV575248v1_alt'
p440
aS'/home/azureuser_michael/Data/Variant_Calling/SV_Results/workspace/chromDepth.txt.tmpdir/chromDepth.txt.000.txt.tmpdir/chromDepth.txt.000.txt_556_chr19_KV575249v1_alt'
p441
aS'/home/azureuser_michael/Data/Variant_Calling/SV_Results/workspace/chromDepth.txt.tmpdir/chromDepth.txt.000.txt.tmpdir/chromDepth.txt.000.txt_557_chr19_KV575250v1_alt'
p442
aS'/home/azureuser_michael/Data/Variant_Calling/SV_Results/workspace/chromDepth.txt.tmpdir/chromDepth.txt.000.txt.tmpdir/chromDepth.txt.000.txt_558_chr19_KV575251v1_alt'
p443
aS'/home/azureuser_michael/Data/Variant_Calling/SV_Results/workspace/chromDepth.txt.tmpdir/chromDepth.txt.000.txt.tmpdir/chromDepth.txt.000.txt_559_chr19_KV575252v1_alt'
p444
aS'/home/azureuser_michael/Data/Variant_Calling/SV_Results/workspace/chromDepth.txt.tmpdir/chromDepth.txt.000.txt.tmpdir/chromDepth.txt.000.txt_560_chr19_KV575253v1_alt'
p445
aS'/home/azureuser_michael/Data/Variant_Calling/SV_Results/workspace/chromDepth.txt.tmpdir/chromDepth.txt.000.txt.tmpdir/chromDepth.txt.000.txt_561_chr19_KV575254v1_alt'
p446
aS'/home/azureuser_michael/Data/Variant_Calling/SV_Results/workspace/chromDepth.txt.tmpdir/chromDepth.txt.000.txt.tmpdir/chromDepth.txt.000.txt_562_chr19_KV575255v1_alt'
p447
aS'/home/azureuser_michael/Data/Variant_Calling/SV_Results/workspace/chromDepth.txt.tmpdir/chromDepth.txt.000.txt.tmpdir/chromDepth.txt.000.txt_563_chr19_KV575256v1_alt'
p448
aS'/home/azureuser_michael/Data/Variant_Calling/SV_Results/workspace/chromDepth.txt.tmpdir/chromDepth.txt.000.txt.tmpdir/chromDepth.txt.000.txt_564_chr19_KV575257v1_alt'
p449
aS'/home/azureuser_michael/Data/Variant_Calling/SV_Results/workspace/chromDepth.txt.tmpdir/chromDepth.txt.000.txt.tmpdir/chromDepth.txt.000.txt_565_chr19_KV575259v1_alt'
p450
aS'/home/azureuser_michael/Data/Variant_Calling/SV_Results/workspace/chromDepth.txt.tmpdir/chromDepth.txt.000.txt.tmpdir/chromDepth.txt.000.txt_566_chr19_KV575260v1_alt'
p451
aS'/home/azureuser_michael/Data/Variant_Calling/SV_Results/workspace/chromDepth.txt.tmpdir/chromDepth.txt.000.txt.tmpdir/chromDepth.txt.000.txt_567_chr19_KV575258v1_alt'
p452
aS'/home/azureuser_michael/Data/Variant_Calling/SV_Results/workspace/chromDepth.txt.tmpdir/chromDepth.txt.000.txt.tmpdir/chromDepth.txt.000.txt_568_chr22_KN196485v1_alt'
p453
aS'/home/azureuser_michael/Data/Variant_Calling/SV_Results/workspace/chromDepth.txt.tmpdir/chromDepth.txt.000.txt.tmpdir/chromDepth.txt.000.txt_569_chr22_KQ458387v1_alt'
p454
aS'/home/azureuser_michael/Data/Variant_Calling/SV_Results/workspace/chromDepth.txt.tmpdir/chromDepth.txt.000.txt.tmpdir/chromDepth.txt.000.txt_570_chr22_KQ458388v1_alt'
p455
aS'/home/azureuser_michael/Data/Variant_Calling/SV_Results/workspace/chromDepth.txt.tmpdir/chromDepth.txt.000.txt.tmpdir/chromDepth.txt.000.txt_571_chr22_KN196486v1_alt'
p456
aS'/home/azureuser_michael/Data/Variant_Calling/SV_Results/workspace/chromDepth.txt.tmpdir/chromDepth.txt.000.txt.tmpdir/chromDepth.txt.000.txt_572_chr22_KQ759761v1_alt'
p457
aS'/home/azureuser_michael/Data/Variant_Calling/SV_Results/workspace/chromDepth.txt.tmpdir/chromDepth.txt.000.txt.tmpdir/chromDepth.txt.000.txt_573_chr22_KQ759762v1_fix'
p458
aS'/home/azureuser_michael/Data/Variant_Calling/SV_Results/workspace/chromDepth.txt.tmpdir/chromDepth.txt.000.txt.tmpdir/chromDepth.txt.000.txt_574_chrX_KV766199v1_alt'
p459
aS'/home/azureuser_michael/Data/Variant_Calling/SV_Results/workspace/chromDepth.txt.tmpdir/chromDepth.txt.000.txt.tmpdir/chromDepth.txt.000.txt_575_chrY_KZ208923v1_fix'
p460
aS'/home/azureuser_michael/Data/Variant_Calling/SV_Results/workspace/chromDepth.txt.tmpdir/chromDepth.txt.000.txt.tmpdir/chromDepth.txt.000.txt_576_chrY_KZ208924v1_fix'
p461
aS'/home/azureuser_michael/Data/Variant_Calling/SV_Results/workspace/chromDepth.txt.tmpdir/chromDepth.txt.000.txt.tmpdir/chromDepth.txt.000.txt_577_chrY_KN196487v1_fix_to_578_chr1_KZ559100v1_fix'
p462
aS'/home/azureuser_michael/Data/Variant_Calling/SV_Results/workspace/chromDepth.txt.tmpdir/chromDepth.txt.000.txt.tmpdir/chromDepth.txt.000.txt_579_chr3_KZ559104v1_fix'
p463
aS'/home/azureuser_michael/Data/Variant_Calling/SV_Results/workspace/chromDepth.txt.tmpdir/chromDepth.txt.000.txt.tmpdir/chromDepth.txt.000.txt_580_chr3_KZ559105v1_alt'
p464
aS'/home/azureuser_michael/Data/Variant_Calling/SV_Results/workspace/chromDepth.txt.tmpdir/chromDepth.txt.000.txt.tmpdir/chromDepth.txt.000.txt_581_chr3_KZ559103v1_alt'
p465
aS'/home/azureuser_michael/Data/Variant_Calling/SV_Results/workspace/chromDepth.txt.tmpdir/chromDepth.txt.000.txt.tmpdir/chromDepth.txt.000.txt_582_chr3_KZ559102v1_alt'
p466
aS'/home/azureuser_michael/Data/Variant_Calling/SV_Results/workspace/chromDepth.txt.tmpdir/chromDepth.txt.000.txt.tmpdir/chromDepth.txt.000.txt_583_chr3_KZ559101v1_alt'
p467
aS'/home/azureuser_michael/Data/Variant_Calling/SV_Results/workspace/chromDepth.txt.tmpdir/chromDepth.txt.000.txt.tmpdir/chromDepth.txt.000.txt_584_chr7_KZ559106v1_alt'
p468
aS'/home/azureuser_michael/Data/Variant_Calling/SV_Results/workspace/chromDepth.txt.tmpdir/chromDepth.txt.000.txt.tmpdir/chromDepth.txt.000.txt_585_chr8_KZ559107v1_alt'
p469
aS'/home/azureuser_michael/Data/Variant_Calling/SV_Results/workspace/chromDepth.txt.tmpdir/chromDepth.txt.000.txt.tmpdir/chromDepth.txt.000.txt_586_chr11_KZ559109v1_fix'
p470
aS'/home/azureuser_michael/Data/Variant_Calling/SV_Results/workspace/chromDepth.txt.tmpdir/chromDepth.txt.000.txt.tmpdir/chromDepth.txt.000.txt_587_chr11_KZ559108v1_fix'
p471
aS'/home/azureuser_michael/Data/Variant_Calling/SV_Results/workspace/chromDepth.txt.tmpdir/chromDepth.txt.000.txt.tmpdir/chromDepth.txt.000.txt_588_chr11_KZ559111v1_alt'
p472
aS'/home/azureuser_michael/Data/Variant_Calling/SV_Results/workspace/chromDepth.txt.tmpdir/chromDepth.txt.000.txt.tmpdir/chromDepth.txt.000.txt_589_chr11_KZ559110v1_alt'
p473
aS'/home/azureuser_michael/Data/Variant_Calling/SV_Results/workspace/chromDepth.txt.tmpdir/chromDepth.txt.000.txt.tmpdir/chromDepth.txt.000.txt_590_chr12_KZ559112v1_alt'
p474
aS'/home/azureuser_michael/Data/Variant_Calling/SV_Results/workspace/chromDepth.txt.tmpdir/chromDepth.txt.000.txt.tmpdir/chromDepth.txt.000.txt_591_chr16_KZ559113v1_fix'
p475
aS'/home/azureuser_michael/Data/Variant_Calling/SV_Results/workspace/chromDepth.txt.tmpdir/chromDepth.txt.000.txt.tmpdir/chromDepth.txt.000.txt_592_chr17_KZ559114v1_alt'
p476
aS'/home/azureuser_michael/Data/Variant_Calling/SV_Results/workspace/chromDepth.txt.tmpdir/chromDepth.txt.000.txt.tmpdir/chromDepth.txt.000.txt_593_chr18_KZ559116v1_alt'
p477
aS'/home/azureuser_michael/Data/Variant_Calling/SV_Results/workspace/chromDepth.txt.tmpdir/chromDepth.txt.000.txt.tmpdir/chromDepth.txt.000.txt_594_chr18_KZ559115v1_fix'
p478
aS'/home/azureuser_michael/Data/Variant_Calling/SV_Results/workspace/chromDepth.txt.tmpdir/chromDepth.txt.000.txt.tmpdir/chromDepth.txt.000.txt_595_chr2_ML143342v1_fix'
p479
aS'/home/azureuser_michael/Data/Variant_Calling/SV_Results/workspace/chromDepth.txt.tmpdir/chromDepth.txt.000.txt.tmpdir/chromDepth.txt.000.txt_596_chr2_ML143341v1_fix'
p480
aS'/home/azureuser_michael/Data/Variant_Calling/SV_Results/workspace/chromDepth.txt.tmpdir/chromDepth.txt.000.txt.tmpdir/chromDepth.txt.000.txt_597_chr3_ML143343v1_alt'
p481
aS'/home/azureuser_michael/Data/Variant_Calling/SV_Results/workspace/chromDepth.txt.tmpdir/chromDepth.txt.000.txt.tmpdir/chromDepth.txt.000.txt_598_chr4_ML143344v1_fix'
p482
aS'/home/azureuser_michael/Data/Variant_Calling/SV_Results/workspace/chromDepth.txt.tmpdir/chromDepth.txt.000.txt.tmpdir/chromDepth.txt.000.txt_599_chr4_ML143347v1_fix'
p483
aS'/home/azureuser_michael/Data/Variant_Calling/SV_Results/workspace/chromDepth.txt.tmpdir/chromDepth.txt.000.txt.tmpdir/chromDepth.txt.000.txt_600_chr4_ML143346v1_fix_to_601_chr4_ML143348v1_fix'
p484
aS'/home/azureuser_michael/Data/Variant_Calling/SV_Results/workspace/chromDepth.txt.tmpdir/chromDepth.txt.000.txt.tmpdir/chromDepth.txt.000.txt_602_chr4_ML143345v1_fix'
p485
aS'/home/azureuser_michael/Data/Variant_Calling/SV_Results/workspace/chromDepth.txt.tmpdir/chromDepth.txt.000.txt.tmpdir/chromDepth.txt.000.txt_603_chr4_ML143349v1_fix'
p486
aS'/home/azureuser_michael/Data/Variant_Calling/SV_Results/workspace/chromDepth.txt.tmpdir/chromDepth.txt.000.txt.tmpdir/chromDepth.txt.000.txt_604_chr5_ML143350v1_fix_to_605_chr6_ML143351v1_fix'
p487
aS'/home/azureuser_michael/Data/Variant_Calling/SV_Results/workspace/chromDepth.txt.tmpdir/chromDepth.txt.000.txt.tmpdir/chromDepth.txt.000.txt_606_chr7_ML143352v1_fix'
p488
aS'/home/azureuser_michael/Data/Variant_Calling/SV_Results/workspace/chromDepth.txt.tmpdir/chromDepth.txt.000.txt.tmpdir/chromDepth.txt.000.txt_607_chr9_ML143353v1_fix'
p489
aS'/home/azureuser_michael/Data/Variant_Calling/SV_Results/workspace/chromDepth.txt.tmpdir/chromDepth.txt.000.txt.tmpdir/chromDepth.txt.000.txt_608_chr10_ML143354v1_fix'
p490
aS'/home/azureuser_michael/Data/Variant_Calling/SV_Results/workspace/chromDepth.txt.tmpdir/chromDepth.txt.000.txt.tmpdir/chromDepth.txt.000.txt_609_chr10_ML143355v1_fix'
p491
aS'/home/azureuser_michael/Data/Variant_Calling/SV_Results/workspace/chromDepth.txt.tmpdir/chromDepth.txt.000.txt.tmpdir/chromDepth.txt.000.txt_610_chr11_ML143358v1_fix'
p492
aS'/home/azureuser_michael/Data/Variant_Calling/SV_Results/workspace/chromDepth.txt.tmpdir/chromDepth.txt.000.txt.tmpdir/chromDepth.txt.000.txt_611_chr11_ML143360v1_fix'
p493
aS'/home/azureuser_michael/Data/Variant_Calling/SV_Results/workspace/chromDepth.txt.tmpdir/chromDepth.txt.000.txt.tmpdir/chromDepth.txt.000.txt_612_chr11_ML143359v1_fix'
p494
aS'/home/azureuser_michael/Data/Variant_Calling/SV_Results/workspace/chromDepth.txt.tmpdir/chromDepth.txt.000.txt.tmpdir/chromDepth.txt.000.txt_613_chr11_ML143357v1_fix'
p495
aS'/home/azureuser_michael/Data/Variant_Calling/SV_Results/workspace/chromDepth.txt.tmpdir/chromDepth.txt.000.txt.tmpdir/chromDepth.txt.000.txt_614_chr11_ML143356v1_fix'
p496
aS'/home/azureuser_michael/Data/Variant_Calling/SV_Results/workspace/chromDepth.txt.tmpdir/chromDepth.txt.000.txt.tmpdir/chromDepth.txt.000.txt_615_chr12_ML143362v1_fix'
p497
aS'/home/azureuser_michael/Data/Variant_Calling/SV_Results/workspace/chromDepth.txt.tmpdir/chromDepth.txt.000.txt.tmpdir/chromDepth.txt.000.txt_616_chr12_ML143361v1_fix'
p498
aS'/home/azureuser_michael/Data/Variant_Calling/SV_Results/workspace/chromDepth.txt.tmpdir/chromDepth.txt.000.txt.tmpdir/chromDepth.txt.000.txt_617_chr13_ML143366v1_fix'
p499
aS'/home/azureuser_michael/Data/Variant_Calling/SV_Results/workspace/chromDepth.txt.tmpdir/chromDepth.txt.000.txt.tmpdir/chromDepth.txt.000.txt_618_chr13_ML143363v1_fix_to_619_chr13_ML143364v1_fix'
p500
aS'/home/azureuser_michael/Data/Variant_Calling/SV_Results/workspace/chromDepth.txt.tmpdir/chromDepth.txt.000.txt.tmpdir/chromDepth.txt.000.txt_620_chr13_ML143365v1_fix'
p501
aS'/home/azureuser_michael/Data/Variant_Calling/SV_Results/workspace/chromDepth.txt.tmpdir/chromDepth.txt.000.txt.tmpdir/chromDepth.txt.000.txt_621_chr14_ML143367v1_fix'
p502
aS'/home/azureuser_michael/Data/Variant_Calling/SV_Results/workspace/chromDepth.txt.tmpdir/chromDepth.txt.000.txt.tmpdir/chromDepth.txt.000.txt_622_chr14_ML143368v1_alt'
p503
aS'/home/azureuser_michael/Data/Variant_Calling/SV_Results/workspace/chromDepth.txt.tmpdir/chromDepth.txt.000.txt.tmpdir/chromDepth.txt.000.txt_623_chr15_ML143372v1_fix'
p504
aS'/home/azureuser_michael/Data/Variant_Calling/SV_Results/workspace/chromDepth.txt.tmpdir/chromDepth.txt.000.txt.tmpdir/chromDepth.txt.000.txt_624_chr15_ML143371v1_fix'
p505
aS'/home/azureuser_michael/Data/Variant_Calling/SV_Results/workspace/chromDepth.txt.tmpdir/chromDepth.txt.000.txt.tmpdir/chromDepth.txt.000.txt_625_chr15_ML143370v1_fix'
p506
aS'/home/azureuser_michael/Data/Variant_Calling/SV_Results/workspace/chromDepth.txt.tmpdir/chromDepth.txt.000.txt.tmpdir/chromDepth.txt.000.txt_626_chr15_ML143369v1_fix'
p507
aS'/home/azureuser_michael/Data/Variant_Calling/SV_Results/workspace/chromDepth.txt.tmpdir/chromDepth.txt.000.txt.tmpdir/chromDepth.txt.000.txt_627_chr16_ML143373v1_fix'
p508
aS'/home/azureuser_michael/Data/Variant_Calling/SV_Results/workspace/chromDepth.txt.tmpdir/chromDepth.txt.000.txt.tmpdir/chromDepth.txt.000.txt_628_chr17_ML143374v1_fix_to_629_chr17_ML143375v1_fix'
p509
aS'/home/azureuser_michael/Data/Variant_Calling/SV_Results/workspace/chromDepth.txt.tmpdir/chromDepth.txt.000.txt.tmpdir/chromDepth.txt.000.txt_630_chr19_ML143376v1_fix'
p510
aS'/home/azureuser_michael/Data/Variant_Calling/SV_Results/workspace/chromDepth.txt.tmpdir/chromDepth.txt.000.txt.tmpdir/chromDepth.txt.000.txt_631_chr21_ML143377v1_fix'
p511
aS'/home/azureuser_michael/Data/Variant_Calling/SV_Results/workspace/chromDepth.txt.tmpdir/chromDepth.txt.000.txt.tmpdir/chromDepth.txt.000.txt_632_chr22_ML143380v1_fix'
p512
aS'/home/azureuser_michael/Data/Variant_Calling/SV_Results/workspace/chromDepth.txt.tmpdir/chromDepth.txt.000.txt.tmpdir/chromDepth.txt.000.txt_633_chr22_ML143378v1_fix'
p513
aS'/home/azureuser_michael/Data/Variant_Calling/SV_Results/workspace/chromDepth.txt.tmpdir/chromDepth.txt.000.txt.tmpdir/chromDepth.txt.000.txt_634_chr22_ML143379v1_fix_to_637_chrX_ML143383v1_fix'
p514
aS'/home/azureuser_michael/Data/Variant_Calling/SV_Results/workspace/chromDepth.txt.tmpdir/chromDepth.txt.000.txt.tmpdir/chromDepth.txt.000.txt_638_chrX_ML143381v1_fix'
p515
aS'/home/azureuser_michael/Data/Variant_Calling/SV_Results/workspace/chromDepth.txt.tmpdir/chromDepth.txt.000.txt.tmpdir/chromDepth.txt.000.txt_639_chrX_ML143384v1_fix'
p516
aS'/home/azureuser_michael/Data/Variant_Calling/SV_Results/workspace/chromDepth.txt.tmpdir/chromDepth.txt.000.txt.tmpdir/chromDepth.txt.000.txt_640_chr1_MU273333v1_fix'
p517
aS'/home/azureuser_michael/Data/Variant_Calling/SV_Results/workspace/chromDepth.txt.tmpdir/chromDepth.txt.000.txt.tmpdir/chromDepth.txt.000.txt_641_chr1_MU273330v1_alt'
p518
aS'/home/azureuser_michael/Data/Variant_Calling/SV_Results/workspace/chromDepth.txt.tmpdir/chromDepth.txt.000.txt.tmpdir/chromDepth.txt.000.txt_642_chr1_MU273335v1_fix'
p519
aS'/home/azureuser_michael/Data/Variant_Calling/SV_Results/workspace/chromDepth.txt.tmpdir/chromDepth.txt.000.txt.tmpdir/chromDepth.txt.000.txt_643_chr1_MU273336v1_fix'
p520
aS'/home/azureuser_michael/Data/Variant_Calling/SV_Results/workspace/chromDepth.txt.tmpdir/chromDepth.txt.000.txt.tmpdir/chromDepth.txt.000.txt_644_chr1_MU273331v1_alt'
p521
aS'/home/azureuser_michael/Data/Variant_Calling/SV_Results/workspace/chromDepth.txt.tmpdir/chromDepth.txt.000.txt.tmpdir/chromDepth.txt.000.txt_645_chr1_MU273334v1_fix'
p522
aS'/home/azureuser_michael/Data/Variant_Calling/SV_Results/workspace/chromDepth.txt.tmpdir/chromDepth.txt.000.txt.tmpdir/chromDepth.txt.000.txt_646_chr1_MU273332v1_alt'
p523
aS'/home/azureuser_michael/Data/Variant_Calling/SV_Results/workspace/chromDepth.txt.tmpdir/chromDepth.txt.000.txt.tmpdir/chromDepth.txt.000.txt_647_chr2_MU273344v1_fix'
p524
aS'/home/azureuser_michael/Data/Variant_Calling/SV_Results/workspace/chromDepth.txt.tmpdir/chromDepth.txt.000.txt.tmpdir/chromDepth.txt.000.txt_648_chr2_MU273345v1_fix'
p525
aS'/home/azureuser_michael/Data/Variant_Calling/SV_Results/workspace/chromDepth.txt.tmpdir/chromDepth.txt.000.txt.tmpdir/chromDepth.txt.000.txt_649_chr2_MU273343v1_fix'
p526
aS'/home/azureuser_michael/Data/Variant_Calling/SV_Results/workspace/chromDepth.txt.tmpdir/chromDepth.txt.000.txt.tmpdir/chromDepth.txt.000.txt_650_chr2_MU273340v1_alt'
p527
aS'/home/azureuser_michael/Data/Variant_Calling/SV_Results/workspace/chromDepth.txt.tmpdir/chromDepth.txt.000.txt.tmpdir/chromDepth.txt.000.txt_651_chr2_MU273337v1_alt'
p528
aS'/home/azureuser_michael/Data/Variant_Calling/SV_Results/workspace/chromDepth.txt.tmpdir/chromDepth.txt.000.txt.tmpdir/chromDepth.txt.000.txt_652_chr2_MU273342v1_fix'
p529
aS'/home/azureuser_michael/Data/Variant_Calling/SV_Results/workspace/chromDepth.txt.tmpdir/chromDepth.txt.000.txt.tmpdir/chromDepth.txt.000.txt_653_chr2_MU273339v1_alt'
p530
aS'/home/azureuser_michael/Data/Variant_Calling/SV_Results/workspace/chromDepth.txt.tmpdir/chromDepth.txt.000.txt.tmpdir/chromDepth.txt.000.txt_654_chr2_MU273338v1_alt'
p531
aS'/home/azureuser_michael/Data/Variant_Calling/SV_Results/workspace/chromDepth.txt.tmpdir/chromDepth.txt.000.txt.tmpdir/chromDepth.txt.000.txt_655_chr2_MU273341v1_fix'
p532
aS'/home/azureuser_michael/Data/Variant_Calling/SV_Results/workspace/chromDepth.txt.tmpdir/chromDepth.txt.000.txt.tmpdir/chromDepth.txt.000.txt_656_chr3_MU273347v1_fix'
p533
aS'/home/azureuser_michael/Data/Variant_Calling/SV_Results/workspace/chromDepth.txt.tmpdir/chromDepth.txt.000.txt.tmpdir/chromDepth.txt.000.txt_657_chr3_MU273348v1_fix'
p534
aS'/home/azureuser_michael/Data/Variant_Calling/SV_Results/workspace/chromDepth.txt.tmpdir/chromDepth.txt.000.txt.tmpdir/chromDepth.txt.000.txt_658_chr3_MU273346v1_fix'
p535
aS'/home/azureuser_michael/Data/Variant_Calling/SV_Results/workspace/chromDepth.txt.tmpdir/chromDepth.txt.000.txt.tmpdir/chromDepth.txt.000.txt_659_chr4_MU273351v1_fix'
p536
aS'/home/azureuser_michael/Data/Variant_Calling/SV_Results/workspace/chromDepth.txt.tmpdir/chromDepth.txt.000.txt.tmpdir/chromDepth.txt.000.txt_660_chr4_MU273349v1_alt'
p537
aS'/home/azureuser_michael/Data/Variant_Calling/SV_Results/workspace/chromDepth.txt.tmpdir/chromDepth.txt.000.txt.tmpdir/chromDepth.txt.000.txt_661_chr4_MU273350v1_fix'
p538
aS'/home/azureuser_michael/Data/Variant_Calling/SV_Results/workspace/chromDepth.txt.tmpdir/chromDepth.txt.000.txt.tmpdir/chromDepth.txt.000.txt_662_chr5_MU273354v1_fix'
p539
aS'/home/azureuser_michael/Data/Variant_Calling/SV_Results/workspace/chromDepth.txt.tmpdir/chromDepth.txt.000.txt.tmpdir/chromDepth.txt.000.txt_663_chr5_MU273353v1_fix'
p540
aS'/home/azureuser_michael/Data/Variant_Calling/SV_Results/workspace/chromDepth.txt.tmpdir/chromDepth.txt.000.txt.tmpdir/chromDepth.txt.000.txt_664_chr5_MU273356v1_alt'
p541
aS'/home/azureuser_michael/Data/Variant_Calling/SV_Results/workspace/chromDepth.txt.tmpdir/chromDepth.txt.000.txt.tmpdir/chromDepth.txt.000.txt_665_chr5_MU273355v1_fix'
p542
aS'/home/azureuser_michael/Data/Variant_Calling/SV_Results/workspace/chromDepth.txt.tmpdir/chromDepth.txt.000.txt.tmpdir/chromDepth.txt.000.txt_666_chr5_MU273352v1_fix'
p543
aS'/home/azureuser_michael/Data/Variant_Calling/SV_Results/workspace/chromDepth.txt.tmpdir/chromDepth.txt.000.txt.tmpdir/chromDepth.txt.000.txt_667_chr6_MU273357v1_alt'
p544
aS'/home/azureuser_michael/Data/Variant_Calling/SV_Results/workspace/chromDepth.txt.tmpdir/chromDepth.txt.000.txt.tmpdir/chromDepth.txt.000.txt_668_chr7_MU273358v1_alt'
p545
aS'/home/azureuser_michael/Data/Variant_Calling/SV_Results/workspace/chromDepth.txt.tmpdir/chromDepth.txt.000.txt.tmpdir/chromDepth.txt.000.txt_669_chr8_MU273362v1_fix'
p546
aS'/home/azureuser_michael/Data/Variant_Calling/SV_Results/workspace/chromDepth.txt.tmpdir/chromDepth.txt.000.txt.tmpdir/chromDepth.txt.000.txt_670_chr8_MU273359v1_fix'
p547
aS'/home/azureuser_michael/Data/Variant_Calling/SV_Results/workspace/chromDepth.txt.tmpdir/chromDepth.txt.000.txt.tmpdir/chromDepth.txt.000.txt_671_chr8_MU273361v1_fix'
p548
aS'/home/azureuser_michael/Data/Variant_Calling/SV_Results/workspace/chromDepth.txt.tmpdir/chromDepth.txt.000.txt.tmpdir/chromDepth.txt.000.txt_672_chr8_MU273363v1_fix'
p549
aS'/home/azureuser_michael/Data/Variant_Calling/SV_Results/workspace/chromDepth.txt.tmpdir/chromDepth.txt.000.txt.tmpdir/chromDepth.txt.000.txt_673_chr8_MU273360v1_fix'
p550
aS'/home/azureuser_michael/Data/Variant_Calling/SV_Results/workspace/chromDepth.txt.tmpdir/chromDepth.txt.000.txt.tmpdir/chromDepth.txt.000.txt_674_chr9_MU273366v1_fix'
p551
aS'/home/azureuser_michael/Data/Variant_Calling/SV_Results/workspace/chromDepth.txt.tmpdir/chromDepth.txt.000.txt.tmpdir/chromDepth.txt.000.txt_675_chr9_MU273364v1_fix'
p552
aS'/home/azureuser_michael/Data/Variant_Calling/SV_Results/workspace/chromDepth.txt.tmpdir/chromDepth.txt.000.txt.tmpdir/chromDepth.txt.000.txt_676_chr9_MU273365v1_fix'
p553
aS'/home/azureuser_michael/Data/Variant_Calling/SV_Results/workspace/chromDepth.txt.tmpdir/chromDepth.txt.000.txt.tmpdir/chromDepth.txt.000.txt_677_chr10_MU273367v1_fix'
p554
aS'/home/azureuser_michael/Data/Variant_Calling/SV_Results/workspace/chromDepth.txt.tmpdir/chromDepth.txt.000.txt.tmpdir/chromDepth.txt.000.txt_678_chr11_KQ759759v2_fix'
p555
aS'/home/azureuser_michael/Data/Variant_Calling/SV_Results/workspace/chromDepth.txt.tmpdir/chromDepth.txt.000.txt.tmpdir/chromDepth.txt.000.txt_679_chr11_MU273369v1_fix'
p556
aS'/home/azureuser_michael/Data/Variant_Calling/SV_Results/workspace/chromDepth.txt.tmpdir/chromDepth.txt.000.txt.tmpdir/chromDepth.txt.000.txt_680_chr11_MU273371v1_fix'
p557
aS'/home/azureuser_michael/Data/Variant_Calling/SV_Results/workspace/chromDepth.txt.tmpdir/chromDepth.txt.000.txt.tmpdir/chromDepth.txt.000.txt_681_chr11_MU273370v1_fix'
p558
aS'/home/azureuser_michael/Data/Variant_Calling/SV_Results/workspace/chromDepth.txt.tmpdir/chromDepth.txt.000.txt.tmpdir/chromDepth.txt.000.txt_682_chr11_MU273368v1_alt'
p559
aS'/home/azureuser_michael/Data/Variant_Calling/SV_Results/workspace/chromDepth.txt.tmpdir/chromDepth.txt.000.txt.tmpdir/chromDepth.txt.000.txt_683_chr12_MU273372v1_fix'
p560
aS'/home/azureuser_michael/Data/Variant_Calling/SV_Results/workspace/chromDepth.txt.tmpdir/chromDepth.txt.000.txt.tmpdir/chromDepth.txt.000.txt_684_chr14_MU273373v1_fix'
p561
aS'/home/azureuser_michael/Data/Variant_Calling/SV_Results/workspace/chromDepth.txt.tmpdir/chromDepth.txt.000.txt.tmpdir/chromDepth.txt.000.txt_685_chr15_MU273375v1_alt'
p562
aS'/home/azureuser_michael/Data/Variant_Calling/SV_Results/workspace/chromDepth.txt.tmpdir/chromDepth.txt.000.txt.tmpdir/chromDepth.txt.000.txt_686_chr15_MU273374v1_fix'
p563
aS'/home/azureuser_michael/Data/Variant_Calling/SV_Results/workspace/chromDepth.txt.tmpdir/chromDepth.txt.000.txt.tmpdir/chromDepth.txt.000.txt_687_chr16_MU273376v1_fix'
p564
aS'/home/azureuser_michael/Data/Variant_Calling/SV_Results/workspace/chromDepth.txt.tmpdir/chromDepth.txt.000.txt.tmpdir/chromDepth.txt.000.txt_688_chr16_MU273377v1_fix'
p565
aS'/home/azureuser_michael/Data/Variant_Calling/SV_Results/workspace/chromDepth.txt.tmpdir/chromDepth.txt.000.txt.tmpdir/chromDepth.txt.000.txt_689_chr17_MU273380v1_fix'
p566
aS'/home/azureuser_michael/Data/Variant_Calling/SV_Results/workspace/chromDepth.txt.tmpdir/chromDepth.txt.000.txt.tmpdir/chromDepth.txt.000.txt_690_chr17_MU273378v1_alt'
p567
aS'/home/azureuser_michael/Data/Variant_Calling/SV_Results/workspace/chromDepth.txt.tmpdir/chromDepth.txt.000.txt.tmpdir/chromDepth.txt.000.txt_691_chr17_MU273383v1_fix'
p568
aS'/home/azureuser_michael/Data/Variant_Calling/SV_Results/workspace/chromDepth.txt.tmpdir/chromDepth.txt.000.txt.tmpdir/chromDepth.txt.000.txt_692_chr17_MU273379v1_fix'
p569
aS'/home/azureuser_michael/Data/Variant_Calling/SV_Results/workspace/chromDepth.txt.tmpdir/chromDepth.txt.000.txt.tmpdir/chromDepth.txt.000.txt_693_chr17_MU273382v1_fix'
p570
aS'/home/azureuser_michael/Data/Variant_Calling/SV_Results/workspace/chromDepth.txt.tmpdir/chromDepth.txt.000.txt.tmpdir/chromDepth.txt.000.txt_694_chr17_MU273381v1_fix'
p571
aS'/home/azureuser_michael/Data/Variant_Calling/SV_Results/workspace/chromDepth.txt.tmpdir/chromDepth.txt.000.txt.tmpdir/chromDepth.txt.000.txt_695_chr19_MU273386v1_fix'
p572
aS'/home/azureuser_michael/Data/Variant_Calling/SV_Results/workspace/chromDepth.txt.tmpdir/chromDepth.txt.000.txt.tmpdir/chromDepth.txt.000.txt_696_chr19_MU273387v1_alt'
p573
aS'/home/azureuser_michael/Data/Variant_Calling/SV_Results/workspace/chromDepth.txt.tmpdir/chromDepth.txt.000.txt.tmpdir/chromDepth.txt.000.txt_697_chr19_MU273384v1_fix'
p574
aS'/home/azureuser_michael/Data/Variant_Calling/SV_Results/workspace/chromDepth.txt.tmpdir/chromDepth.txt.000.txt.tmpdir/chromDepth.txt.000.txt_698_chr19_MU273385v1_fix'
p575
aS'/home/azureuser_michael/Data/Variant_Calling/SV_Results/workspace/chromDepth.txt.tmpdir/chromDepth.txt.000.txt.tmpdir/chromDepth.txt.000.txt_699_chr20_MU273388v1_fix'
p576
aS'/home/azureuser_michael/Data/Variant_Calling/SV_Results/workspace/chromDepth.txt.tmpdir/chromDepth.txt.000.txt.tmpdir/chromDepth.txt.000.txt_700_chr20_MU273389v1_fix'
p577
aS'/home/azureuser_michael/Data/Variant_Calling/SV_Results/workspace/chromDepth.txt.tmpdir/chromDepth.txt.000.txt.tmpdir/chromDepth.txt.000.txt_701_chr21_MU273390v1_fix'
p578
aS'/home/azureuser_michael/Data/Variant_Calling/SV_Results/workspace/chromDepth.txt.tmpdir/chromDepth.txt.000.txt.tmpdir/chromDepth.txt.000.txt_702_chr21_MU273391v1_fix'
p579
aS'/home/azureuser_michael/Data/Variant_Calling/SV_Results/workspace/chromDepth.txt.tmpdir/chromDepth.txt.000.txt.tmpdir/chromDepth.txt.000.txt_703_chr21_MU273392v1_fix'
p580
aS'/home/azureuser_michael/Data/Variant_Calling/SV_Results/workspace/chromDepth.txt.tmpdir/chromDepth.txt.000.txt.tmpdir/chromDepth.txt.000.txt_704_chr22_KQ759762v2_fix'
p581
aS'/home/azureuser_michael/Data/Variant_Calling/SV_Results/workspace/chromDepth.txt.tmpdir/chromDepth.txt.000.txt.tmpdir/chromDepth.txt.000.txt_705_chrX_MU273397v1_alt'
p582
aS'/home/azureuser_michael/Data/Variant_Calling/SV_Results/workspace/chromDepth.txt.tmpdir/chromDepth.txt.000.txt.tmpdir/chromDepth.txt.000.txt_706_chrX_MU273393v1_fix'
p583
aS'/home/azureuser_michael/Data/Variant_Calling/SV_Results/workspace/chromDepth.txt.tmpdir/chromDepth.txt.000.txt.tmpdir/chromDepth.txt.000.txt_707_chrX_MU273394v1_fix'
p584
aS'/home/azureuser_michael/Data/Variant_Calling/SV_Results/workspace/chromDepth.txt.tmpdir/chromDepth.txt.000.txt.tmpdir/chromDepth.txt.000.txt_708_chrX_MU273396v1_alt'
p585
aS'/home/azureuser_michael/Data/Variant_Calling/SV_Results/workspace/chromDepth.txt.tmpdir/chromDepth.txt.000.txt.tmpdir/chromDepth.txt.000.txt_709_chrX_MU273395v1_alt'
p586
aS'/home/azureuser_michael/Data/Variant_Calling/SV_Results/workspace/chromDepth.txt.tmpdir/chromDepth.txt.000.txt.tmpdir/chromDepth.txt.000.txt_710_chrY_MU273398v1_fix'
p587
asS'errFile'
p588
S'/home/azureuser_michael/Data/Variant_Calling/SV_Results/workspace/pyflow.data/logs/pyflow_tasks_stderr_log.txt'
p589
sS'outFile'
p590
S'/home/azureuser_michael/Data/Variant_Calling/SV_Results/workspace/pyflow.data/logs/pyflow_tasks_stdout_log.txt'
p591
sS'env'
p592
NsS'nCores'
p593
I1
sS'cwd'
p594
S''
p595
s.