(dp0
S'isShellCmd'
p1
I00
sS'cmd'
p2
(lp3
S'/home/azureuser_michael/Utils/miniforge3/envs/manta_env/libexec/GetChromDepth'
p4
aS'--ref'
p5
aS'/home/azureuser_michael/Data/Read_Alignment/hg_38.fa'
p6
aS'--align-file'
p7
aS'/home/azureuser_michael/Data/Post_Processing/CA.bam'
p8
aS'--output'
p9
aS'/home/azureuser_michael/Data/Variant_Calling/SV_Results/workspace/chromDepth.txt.tmpdir/chromDepth.txt.000.txt.tmpdir/chromDepth.txt.000.txt_324_chrM_to_348_chrUn_KI270429v1'
p10
aS'--chrom'
p11
aS'chrM'
p12
ag11
aS'chrUn_KI270302v1'
p13
ag11
aS'chrUn_KI270304v1'
p14
ag11
aS'chrUn_KI270303v1'
p15
ag11
aS'chrUn_KI270305v1'
p16
ag11
aS'chrUn_KI270322v1'
p17
ag11
aS'chrUn_KI270320v1'
p18
ag11
aS'chrUn_KI270310v1'
p19
ag11
aS'chrUn_KI270316v1'
p20
ag11
aS'chrUn_KI270315v1'
p21
ag11
aS'chrUn_KI270312v1'
p22
ag11
aS'chrUn_KI270311v1'
p23
ag11
aS'chrUn_KI270317v1'
p24
ag11
aS'chrUn_KI270412v1'
p25
ag11
aS'chrUn_KI270411v1'
p26
ag11
aS'chrUn_KI270414v1'
p27
ag11
aS'chrUn_KI270419v1'
p28
ag11
aS'chrUn_KI270418v1'
p29
ag11
aS'chrUn_KI270420v1'
p30
ag11
aS'chrUn_KI270424v1'
p31
ag11
aS'chrUn_KI270417v1'
p32
ag11
aS'chrUn_KI270422v1'
p33
ag11
aS'chrUn_KI270423v1'
p34
ag11
aS'chrUn_KI270425v1'
p35
ag11
aS'chrUn_KI270429v1'
p36
asS'errFile'
p37
S'/home/azureuser_michael/Data/Variant_Calling/SV_Results/workspace/pyflow.data/logs/pyflow_tasks_stderr_log.txt'
p38
sS'outFile'
p39
S'/home/azureuser_michael/Data/Variant_Calling/SV_Results/workspace/pyflow.data/logs/pyflow_tasks_stdout_log.txt'
p40
sS'env'
p41
NsS'nCores'
p42
I1
sS'cwd'
p43
S''
p44
s.