(dp0
S'isShellCmd'
p1
I00
sS'cmd'
p2
(lp3
S'/home/azureuser_michael/Utils/miniforge3/envs/manta_env/libexec/EstimateSVLoci'
p4
aS'--output-file'
p5
aS'/home/azureuser_michael/Data/Variant_Calling/SV_Results/workspace/svLocusGraph.bin.tmpdir/svLocusGraph.chromId_443_chrUn_KI270753v1_0000_to_chromId_445_chrUn_KI270755v1_0000.bin'
p6
aS'--align-stats'
p7
aS'/home/azureuser_michael/Data/Variant_Calling/SV_Results/workspace/alignmentStats.xml'
p8
aS'--region'
p9
aS'chrUn_KI270753v1:1-62944'
p10
ag9
aS'chrUn_KI270754v1:1-40191'
p11
ag9
aS'chrUn_KI270755v1:1-36723'
p12
aS'--min-candidate-sv-size'
p13
aS'8'
p14
aS'--min-edge-observations'
p15
aS'3'
p16
aS'--ref'
p17
aS'/home/azureuser_michael/Data/Read_Alignment/hg_38.fa'
p18
aS'--align-file'
p19
aS'/home/azureuser_michael/Data/Post_Processing/CA.bam'
p20
aS'--tumor-align-file'
p21
aS'/home/azureuser_michael/Data/Post_Processing/TA.bam'
p22
aS'--chrom-depth'
p23
aS'/home/azureuser_michael/Data/Variant_Calling/SV_Results/workspace/chromDepth.txt'
p24
asS'errFile'
p25
S'/home/azureuser_michael/Data/Variant_Calling/SV_Results/workspace/pyflow.data/logs/pyflow_tasks_stderr_log.txt'
p26
sS'outFile'
p27
S'/home/azureuser_michael/Data/Variant_Calling/SV_Results/workspace/pyflow.data/logs/pyflow_tasks_stdout_log.txt'
p28
sS'env'
p29
NsS'nCores'
p30
I1
sS'cwd'
p31
S''
p32
s.