(dp0
S'isShellCmd'
p1
I00
sS'cmd'
p2
(lp3
S'/home/azureuser_michael/Utils/miniforge3/envs/manta_env/libexec/SummarizeSVLoci'
p4
aS'--global'
p5
aS'--graph-file'
p6
aS'/home/azureuser_michael/Data/Variant_Calling/SV_Results/workspace/svLocusGraph.bin'
p7
aS'--output-file'
p8
aS'/home/azureuser_michael/Data/Variant_Calling/SV_Results/results/stats/svLocusGraphStats.tsv'
p9
asS'errFile'
p10
S'/home/azureuser_michael/Data/Variant_Calling/SV_Results/workspace/pyflow.data/logs/pyflow_tasks_stderr_log.txt'
p11
sS'outFile'
p12
S'/home/azureuser_michael/Data/Variant_Calling/SV_Results/workspace/pyflow.data/logs/pyflow_tasks_stdout_log.txt'
p13
sS'env'
p14
NsS'nCores'
p15
I1
sS'cwd'
p16
S''
p17
s.