(dp0
S'isShellCmd'
p1
I01
sS'cmd'
p2
S'"/home/azureuser_michael/Utils/miniforge3/envs/manta_env/bin/python2" "/home/azureuser_michael/Utils/miniforge3/envs/manta_env/libexec/vcfCmdlineSwapper.py" "/home/azureuser_michael/Utils/miniforge3/envs/manta_env/bin/configManta.py --tumorBam /home/azureuser_michael/Data/Post_Processing/TA.bam --normalBam /home/azureuser_michael/Data/Post_Processing/CA.bam --referenceFasta /home/azureuser_michael/Data/Read_Alignment/hg_38.fa --runDir /home/azureuser_michael/Data/Variant_Calling/SV_Results" < "/home/azureuser_michael/Data/Variant_Calling/SV_Results/workspace/svHyGen/diploidSV.0000.vcf" > "/home/azureuser_michael/Data/Variant_Calling/SV_Results/workspace/svHyGen/diploidSV.0000.vcf.reheader.tmp" && mv "/home/azureuser_michael/Data/Variant_Calling/SV_Results/workspace/svHyGen/diploidSV.0000.vcf.reheader.tmp" "/home/azureuser_michael/Data/Variant_Calling/SV_Results/workspace/svHyGen/diploidSV.0000.vcf"'
p3
sS'errFile'
p4
S'/home/azureuser_michael/Data/Variant_Calling/SV_Results/workspace/pyflow.data/logs/pyflow_tasks_stderr_log.txt'
p5
sS'outFile'
p6
S'/home/azureuser_michael/Data/Variant_Calling/SV_Results/workspace/pyflow.data/logs/pyflow_tasks_stdout_log.txt'
p7
sS'env'
p8
NsS'nCores'
p9
I1
sS'cwd'
p10
S''
p11
s.