(dp0
S'isShellCmd'
p1
I00
sS'cmd'
p2
(lp3
S'/home/azureuser_michael/Utils/miniforge3/envs/manta_env/libexec/GetChromDepth'
p4
aS'--ref'
p5
aS'/home/azureuser_michael/Data/Read_Alignment/hg_38.fa'
p6
aS'--align-file'
p7
aS'/home/azureuser_michael/Data/Post_Processing/CA.bam'
p8
aS'--output'
p9
aS'/home/azureuser_michael/Data/Variant_Calling/SV_Results/workspace/chromDepth.txt.tmpdir/chromDepth.txt.000.txt.tmpdir/chromDepth.txt.000.txt_634_chr22_ML143379v1_fix_to_637_chrX_ML143383v1_fix'
p10
aS'--chrom'
p11
aS'chr22_ML143379v1_fix'
p12
ag11
aS'chrX_ML143385v1_fix'
p13
ag11
aS'chrX_ML143382v1_fix'
p14
ag11
aS'chrX_ML143383v1_fix'
p15
asS'errFile'
p16
S'/home/azureuser_michael/Data/Variant_Calling/SV_Results/workspace/pyflow.data/logs/pyflow_tasks_stderr_log.txt'
p17
sS'outFile'
p18
S'/home/azureuser_michael/Data/Variant_Calling/SV_Results/workspace/pyflow.data/logs/pyflow_tasks_stdout_log.txt'
p19
sS'env'
p20
NsS'nCores'
p21
I1
sS'cwd'
p22
S''
p23
s.