(dp0
S'isShellCmd'
p1
I00
sS'cmd'
p2
(lp3
S'/home/azureuser_michael/Utils/miniforge3/envs/manta_env/libexec/EstimateSVLoci'
p4
aS'--output-file'
p5
aS'/home/azureuser_michael/Data/Variant_Calling/SV_Results/workspace/svLocusGraph.bin.tmpdir/svLocusGraph.chromId_362_chrUn_KI270519v1_0000_to_chromId_371_chrUn_KI270539v1_0000.bin'
p6
aS'--align-stats'
p7
aS'/home/azureuser_michael/Data/Variant_Calling/SV_Results/workspace/alignmentStats.xml'
p8
aS'--region'
p9
aS'chrUn_KI270519v1:1-138126'
p10
ag9
aS'chrUn_KI270522v1:1-5674'
p11
ag9
aS'chrUn_KI270511v1:1-8127'
p12
ag9
aS'chrUn_KI270515v1:1-6361'
p13
ag9
aS'chrUn_KI270507v1:1-5353'
p14
ag9
aS'chrUn_KI270517v1:1-3253'
p15
ag9
aS'chrUn_KI270529v1:1-1899'
p16
ag9
aS'chrUn_KI270528v1:1-2983'
p17
ag9
aS'chrUn_KI270530v1:1-2168'
p18
ag9
aS'chrUn_KI270539v1:1-993'
p19
aS'--min-candidate-sv-size'
p20
aS'8'
p21
aS'--min-edge-observations'
p22
aS'3'
p23
aS'--ref'
p24
aS'/home/azureuser_michael/Data/Read_Alignment/hg_38.fa'
p25
aS'--align-file'
p26
aS'/home/azureuser_michael/Data/Post_Processing/CA.bam'
p27
aS'--tumor-align-file'
p28
aS'/home/azureuser_michael/Data/Post_Processing/TA.bam'
p29
aS'--chrom-depth'
p30
aS'/home/azureuser_michael/Data/Variant_Calling/SV_Results/workspace/chromDepth.txt'
p31
asS'errFile'
p32
S'/home/azureuser_michael/Data/Variant_Calling/SV_Results/workspace/pyflow.data/logs/pyflow_tasks_stderr_log.txt'
p33
sS'outFile'
p34
S'/home/azureuser_michael/Data/Variant_Calling/SV_Results/workspace/pyflow.data/logs/pyflow_tasks_stdout_log.txt'
p35
sS'env'
p36
NsS'nCores'
p37
I1
sS'cwd'
p38
S''
p39
s.