(dp0
S'isShellCmd'
p1
I00
sS'cmd'
p2
(lp3
S'/home/azureuser_michael/Utils/miniforge3/envs/manta_env/bin/python2'
p4
aS'/home/azureuser_michael/Utils/miniforge3/envs/manta_env/libexec/sortEdgeLogs.py'
p5
aS'-f'
p6
aS'/home/azureuser_michael/Data/Variant_Calling/SV_Results/workspace/svHyGen/list.edgeRuntimeLog.txt'
p7
aS'-o'
p8
aS'/home/azureuser_michael/Data/Variant_Calling/SV_Results/workspace/edgeRuntimeLog.txt'
p9
asS'errFile'
p10
S'/home/azureuser_michael/Data/Variant_Calling/SV_Results/workspace/pyflow.data/logs/pyflow_tasks_stderr_log.txt'
p11
sS'outFile'
p12
S'/home/azureuser_michael/Data/Variant_Calling/SV_Results/workspace/pyflow.data/logs/pyflow_tasks_stdout_log.txt'
p13
sS'env'
p14
NsS'nCores'
p15
I1
sS'cwd'
p16
S''
p17
s.