(dp0
S'isShellCmd'
p1
I00
sS'cmd'
p2
(lp3
S'/home/azureuser_michael/Utils/miniforge3/envs/manta_env/libexec/EstimateSVLoci'
p4
aS'--output-file'
p5
aS'/home/azureuser_michael/Data/Variant_Calling/SV_Results/workspace/svLocusGraph.bin.tmpdir/svLocusGraph.chromId_618_chr13_ML143363v1_fix_0000_to_chromId_619_chr13_ML143364v1_fix_0000.bin'
p6
aS'--align-stats'
p7
aS'/home/azureuser_michael/Data/Variant_Calling/SV_Results/workspace/alignmentStats.xml'
p8
aS'--region'
p9
aS'chr13_ML143363v1_fix:1-7309'
p10
ag9
aS'chr13_ML143364v1_fix:1-158944'
p11
aS'--min-candidate-sv-size'
p12
aS'8'
p13
aS'--min-edge-observations'
p14
aS'3'
p15
aS'--ref'
p16
aS'/home/azureuser_michael/Data/Read_Alignment/hg_38.fa'
p17
aS'--align-file'
p18
aS'/home/azureuser_michael/Data/Post_Processing/CA.bam'
p19
aS'--tumor-align-file'
p20
aS'/home/azureuser_michael/Data/Post_Processing/TA.bam'
p21
aS'--chrom-depth'
p22
aS'/home/azureuser_michael/Data/Variant_Calling/SV_Results/workspace/chromDepth.txt'
p23
asS'errFile'
p24
S'/home/azureuser_michael/Data/Variant_Calling/SV_Results/workspace/pyflow.data/logs/pyflow_tasks_stderr_log.txt'
p25
sS'outFile'
p26
S'/home/azureuser_michael/Data/Variant_Calling/SV_Results/workspace/pyflow.data/logs/pyflow_tasks_stdout_log.txt'
p27
sS'env'
p28
NsS'nCores'
p29
I1
sS'cwd'
p30
S''
p31
s.