(dp0
S'isShellCmd'
p1
I00
sS'cmd'
p2
(lp3
S'/home/azureuser_michael/Utils/miniforge3/envs/manta_env/libexec/EstimateSVLoci'
p4
aS'--output-file'
p5
aS'/home/azureuser_michael/Data/Variant_Calling/SV_Results/workspace/svLocusGraph.bin.tmpdir/svLocusGraph.chromId_350_chrUn_KI270466v1_0000_to_chromId_353_chrUn_KI270435v1_0000.bin'
p6
aS'--align-stats'
p7
aS'/home/azureuser_michael/Data/Variant_Calling/SV_Results/workspace/alignmentStats.xml'
p8
aS'--region'
p9
aS'chrUn_KI270466v1:1-1233'
p10
ag9
aS'chrUn_KI270465v1:1-1774'
p11
ag9
aS'chrUn_KI270467v1:1-3920'
p12
ag9
aS'chrUn_KI270435v1:1-92983'
p13
aS'--min-candidate-sv-size'
p14
aS'8'
p15
aS'--min-edge-observations'
p16
aS'3'
p17
aS'--ref'
p18
aS'/home/azureuser_michael/Data/Read_Alignment/hg_38.fa'
p19
aS'--align-file'
p20
aS'/home/azureuser_michael/Data/Post_Processing/CA.bam'
p21
aS'--tumor-align-file'
p22
aS'/home/azureuser_michael/Data/Post_Processing/TA.bam'
p23
aS'--chrom-depth'
p24
aS'/home/azureuser_michael/Data/Variant_Calling/SV_Results/workspace/chromDepth.txt'
p25
asS'errFile'
p26
S'/home/azureuser_michael/Data/Variant_Calling/SV_Results/workspace/pyflow.data/logs/pyflow_tasks_stderr_log.txt'
p27
sS'outFile'
p28
S'/home/azureuser_michael/Data/Variant_Calling/SV_Results/workspace/pyflow.data/logs/pyflow_tasks_stdout_log.txt'
p29
sS'env'
p30
NsS'nCores'
p31
I1
sS'cwd'
p32
S''
p33
s.