(dp0
S'isShellCmd'
p1
I01
sS'cmd'
p2
S'"/home/azureuser_michael/Utils/miniforge3/envs/manta_env/bin/python2" "/home/azureuser_michael/Utils/miniforge3/envs/manta_env/libexec/sortVcf.py" -f "/home/azureuser_michael/Data/Variant_Calling/SV_Results/workspace/svHyGen/list.sortSomaticSV.txt" | "/home/azureuser_michael/Utils/miniforge3/envs/manta_env/libexec/bgzip" -c > "/home/azureuser_michael/Data/Variant_Calling/SV_Results/results/variants/somaticSV.vcf.gz"'
p3
sS'errFile'
p4
S'/home/azureuser_michael/Data/Variant_Calling/SV_Results/workspace/pyflow.data/logs/pyflow_tasks_stderr_log.txt'
p5
sS'outFile'
p6
S'/home/azureuser_michael/Data/Variant_Calling/SV_Results/workspace/pyflow.data/logs/pyflow_tasks_stdout_log.txt'
p7
sS'env'
p8
NsS'nCores'
p9
I1
sS'cwd'
p10
S''
p11
s.