(dp0
S'isShellCmd'
p1
I00
sS'cmd'
p2
(lp3
S'/home/azureuser_michael/Utils/miniforge3/envs/manta_env/libexec/EstimateSVLoci'
p4
aS'--output-file'
p5
aS'/home/azureuser_michael/Data/Variant_Calling/SV_Results/workspace/svLocusGraph.bin.tmpdir/svLocusGraph.chromId_372_chrUn_KI270538v1_0000_to_chromId_383_chrUn_KI270582v1_0000.bin'
p6
aS'--align-stats'
p7
aS'/home/azureuser_michael/Data/Variant_Calling/SV_Results/workspace/alignmentStats.xml'
p8
aS'--region'
p9
aS'chrUn_KI270538v1:1-91309'
p10
ag9
aS'chrUn_KI270544v1:1-1202'
p11
ag9
aS'chrUn_KI270548v1:1-1599'
p12
ag9
aS'chrUn_KI270583v1:1-1400'
p13
ag9
aS'chrUn_KI270587v1:1-2969'
p14
ag9
aS'chrUn_KI270580v1:1-1553'
p15
ag9
aS'chrUn_KI270581v1:1-7046'
p16
ag9
aS'chrUn_KI270579v1:1-31033'
p17
ag9
aS'chrUn_KI270589v1:1-44474'
p18
ag9
aS'chrUn_KI270590v1:1-4685'
p19
ag9
aS'chrUn_KI270584v1:1-4513'
p20
ag9
aS'chrUn_KI270582v1:1-6504'
p21
aS'--min-candidate-sv-size'
p22
aS'8'
p23
aS'--min-edge-observations'
p24
aS'3'
p25
aS'--ref'
p26
aS'/home/azureuser_michael/Data/Read_Alignment/hg_38.fa'
p27
aS'--align-file'
p28
aS'/home/azureuser_michael/Data/Post_Processing/CA.bam'
p29
aS'--tumor-align-file'
p30
aS'/home/azureuser_michael/Data/Post_Processing/TA.bam'
p31
aS'--chrom-depth'
p32
aS'/home/azureuser_michael/Data/Variant_Calling/SV_Results/workspace/chromDepth.txt'
p33
asS'errFile'
p34
S'/home/azureuser_michael/Data/Variant_Calling/SV_Results/workspace/pyflow.data/logs/pyflow_tasks_stderr_log.txt'
p35
sS'outFile'
p36
S'/home/azureuser_michael/Data/Variant_Calling/SV_Results/workspace/pyflow.data/logs/pyflow_tasks_stdout_log.txt'
p37
sS'env'
p38
NsS'nCores'
p39
I1
sS'cwd'
p40
S''
p41
s.