(dp0
S'isShellCmd'
p1
I00
sS'cmd'
p2
(lp3
S'/home/azureuser_michael/Utils/miniforge3/envs/manta_env/libexec/SummarizeAlignmentStats'
p4
aS'--align-stats'
p5
aS'/home/azureuser_michael/Data/Variant_Calling/SV_Results/workspace/alignmentStats.xml'
p6
aS'--output-file'
p7
aS'/home/azureuser_michael/Data/Variant_Calling/SV_Results/results/stats/alignmentStatsSummary.txt'
p8
asS'errFile'
p9
S'/home/azureuser_michael/Data/Variant_Calling/SV_Results/workspace/pyflow.data/logs/pyflow_tasks_stderr_log.txt'
p10
sS'outFile'
p11
S'/home/azureuser_michael/Data/Variant_Calling/SV_Results/workspace/pyflow.data/logs/pyflow_tasks_stdout_log.txt'
p12
sS'env'
p13
NsS'nCores'
p14
I1
sS'cwd'
p15
S''
p16
s.