(dp0
S'isShellCmd'
p1
I00
sS'cmd'
p2
(lp3
S'/home/azureuser_michael/Utils/miniforge3/envs/manta_env/libexec/GetAlignmentStats'
p4
aS'--ref'
p5
aS'/home/azureuser_michael/Data/Read_Alignment/hg_38.fa'
p6
aS'--output-file'
p7
aS'/home/azureuser_michael/Data/Variant_Calling/SV_Results/workspace/alignmentStats.xml.tmpdir/alignmentStats.xml.001.xml'
p8
aS'--align-file'
p9
aS'/home/azureuser_michael/Data/Post_Processing/TA.bam'
p10
asS'errFile'
p11
S'/home/azureuser_michael/Data/Variant_Calling/SV_Results/workspace/pyflow.data/logs/pyflow_tasks_stderr_log.txt'
p12
sS'outFile'
p13
S'/home/azureuser_michael/Data/Variant_Calling/SV_Results/workspace/pyflow.data/logs/pyflow_tasks_stdout_log.txt'
p14
sS'env'
p15
NsS'nCores'
p16
I1
sS'cwd'
p17
S''
p18
s.